
KBS.elf:     file format elf32-littlenios2
KBS.elf
architecture: nios2:r1, flags 0x00000112:
EXEC_P, HAS_SYMS, D_PAGED
start address 0x030401bc

Program Header:
    LOAD off    0x00001000 vaddr 0x03040000 paddr 0x03040000 align 2**12
         filesz 0x00000020 memsz 0x00000020 flags r-x
    LOAD off    0x00001020 vaddr 0x03040020 paddr 0x03040020 align 2**12
         filesz 0x000296c8 memsz 0x000296c8 flags r-x
    LOAD off    0x0002a6e8 vaddr 0x030696e8 paddr 0x0306b550 align 2**12
         filesz 0x00001e68 memsz 0x00001e68 flags rw-
    LOAD off    0x0002d3b8 vaddr 0x0306d3b8 paddr 0x0306d3b8 align 2**12
         filesz 0x00000000 memsz 0x000098d4 flags rw-

Sections:
Idx Name          Size      VMA       LMA       File off  Algn
  0 .entry        00000020  03040000  03040000  00001000  2**5
                  CONTENTS, ALLOC, LOAD, READONLY, CODE
  1 .exceptions   0000019c  03040020  03040020  00001020  2**2
                  CONTENTS, ALLOC, LOAD, READONLY, CODE
  2 .text         0002834c  030401bc  030401bc  000011bc  2**2
                  CONTENTS, ALLOC, LOAD, READONLY, CODE
  3 .rodata       000011e0  03068508  03068508  00029508  2**2
                  CONTENTS, ALLOC, LOAD, READONLY, DATA
  4 .rwdata       00001e68  030696e8  0306b550  0002a6e8  2**2
                  CONTENTS, ALLOC, LOAD, DATA, SMALL_DATA
  5 .bss          000098d4  0306d3b8  0306d3b8  0002d3b8  2**2
                  ALLOC, SMALL_DATA
  6 .av_tri_s1_cfi_flash_0 00000000  02800000  02800000  0002c550  2**0
                  CONTENTS
  7 .onchip_memory2 00000000  03076c8c  03076c8c  0002c550  2**0
                  CONTENTS
  8 .comment      00000023  00000000  00000000  0002c550  2**0
                  CONTENTS, READONLY
  9 .debug_aranges 000016b8  00000000  00000000  0002c578  2**3
                  CONTENTS, READONLY, DEBUGGING
 10 .debug_info   0004234a  00000000  00000000  0002dc30  2**0
                  CONTENTS, READONLY, DEBUGGING
 11 .debug_abbrev 0000fad2  00000000  00000000  0006ff7a  2**0
                  CONTENTS, READONLY, DEBUGGING
 12 .debug_line   000144fe  00000000  00000000  0007fa4c  2**0
                  CONTENTS, READONLY, DEBUGGING
 13 .debug_frame  00005540  00000000  00000000  00093f4c  2**2
                  CONTENTS, READONLY, DEBUGGING
 14 .debug_str    00006bb3  00000000  00000000  0009948c  2**0
                  CONTENTS, READONLY, DEBUGGING
 15 .debug_loc    0001ddf1  00000000  00000000  000a003f  2**0
                  CONTENTS, READONLY, DEBUGGING
 16 .debug_alt_sim_info 00000060  00000000  00000000  000bde30  2**2
                  CONTENTS, READONLY, DEBUGGING
 17 .debug_ranges 00001cd0  00000000  00000000  000bde90  2**3
                  CONTENTS, READONLY, DEBUGGING
 18 .thread_model 00000006  00000000  00000000  000c69f8  2**0
                  CONTENTS, READONLY
 19 .cpu          00000003  00000000  00000000  000c69fe  2**0
                  CONTENTS, READONLY
 20 .qsys         00000001  00000000  00000000  000c6a01  2**0
                  CONTENTS, READONLY
 21 .simulation_enabled 00000001  00000000  00000000  000c6a02  2**0
                  CONTENTS, READONLY
 22 .sysid_hash   00000004  00000000  00000000  000c6a03  2**0
                  CONTENTS, READONLY
 23 .sysid_base   00000004  00000000  00000000  000c6a07  2**0
                  CONTENTS, READONLY
 24 .sysid_time   00000004  00000000  00000000  000c6a0b  2**0
                  CONTENTS, READONLY
 25 .stderr_dev   00000009  00000000  00000000  000c6a0f  2**0
                  CONTENTS, READONLY
 26 .stdin_dev    00000009  00000000  00000000  000c6a18  2**0
                  CONTENTS, READONLY
 27 .stdout_dev   00000009  00000000  00000000  000c6a21  2**0
                  CONTENTS, READONLY
 28 .sopc_system_name 0000000c  00000000  00000000  000c6a2a  2**0
                  CONTENTS, READONLY
 29 .quartus_project_dir 00000035  00000000  00000000  000c6a36  2**0
                  CONTENTS, READONLY
 30 .jdi          00004924  00000000  00000000  000c6a6b  2**0
                  CONTENTS, READONLY
 31 .sopcinfo     000d0e10  00000000  00000000  000cb38f  2**0
                  CONTENTS, READONLY
SYMBOL TABLE:
03040000 l    d  .entry	00000000 .entry
03040020 l    d  .exceptions	00000000 .exceptions
030401bc l    d  .text	00000000 .text
03068508 l    d  .rodata	00000000 .rodata
030696e8 l    d  .rwdata	00000000 .rwdata
0306d3b8 l    d  .bss	00000000 .bss
02800000 l    d  .av_tri_s1_cfi_flash_0	00000000 .av_tri_s1_cfi_flash_0
03076c8c l    d  .onchip_memory2	00000000 .onchip_memory2
00000000 l    d  .comment	00000000 .comment
00000000 l    d  .debug_aranges	00000000 .debug_aranges
00000000 l    d  .debug_info	00000000 .debug_info
00000000 l    d  .debug_abbrev	00000000 .debug_abbrev
00000000 l    d  .debug_line	00000000 .debug_line
00000000 l    d  .debug_frame	00000000 .debug_frame
00000000 l    d  .debug_str	00000000 .debug_str
00000000 l    d  .debug_loc	00000000 .debug_loc
00000000 l    d  .debug_alt_sim_info	00000000 .debug_alt_sim_info
00000000 l    d  .debug_ranges	00000000 .debug_ranges
00000000 l    df *ABS*	00000000 ../KBS_bsp//obj/HAL/src/crt0.o
03040204 l       .text	00000000 alt_after_alt_main
00000000 l    df *ABS*	00000000 alt_exception_entry.o
03040094 l       .exceptions	00000000 alt_exception_unknown
00000000 l    df *ABS*	00000000 alt_irq_handler.c
00000000 l    df *ABS*	00000000 functions.c
0306d460 l     O .bss	00001004 gWavePlayList
0306e464 l     O .bss	0000023c gWavePlay
0306d3b8 l     O .bss	00000004 hFat
0306b480 l     O .rwdata	00000004 bFirsTime2SetupVol.4557
00000000 l    df *ABS*	00000000 hello_ucosii.c
0306e6a0 l     O .bss	00001004 gWavePlayList
0306f6a4 l     O .bss	0000023c gWavePlay
0306d3bc l     O .bss	00000004 hFat
00000000 l    df *ABS*	00000000 FatFileSystem.c
00000000 l    df *ABS*	00000000 FatInternal.c
00000000 l    df *ABS*	00000000 AUDIO.c
0306f8e0 l     O .bss	00000028 reg_file
00000000 l    df *ABS*	00000000 I2C.c
00000000 l    df *ABS*	00000000 LCD.c
0306d3c4 l     O .bss	00000004 fp
00000000 l    df *ABS*	00000000 LED.c
00000000 l    df *ABS*	00000000 SEG7.c
030696e8 l     O .rwdata	00000010 szMap
00000000 l    df *ABS*	00000000 WaveLib.c
00000000 l    df *ABS*	00000000 debug.c
00000000 l    df *ABS*	00000000 crc16.c
03068cd8 l     O .rodata	00000200 crc16tab
00000000 l    df *ABS*	00000000 crc7.c
03068ed8 l     O .rodata	00000100 crc7_syndrome_table
00000000 l    df *ABS*	00000000 sd_hal.c
00000000 l    df *ABS*	00000000 sd_lib.c
0306f908 l     O .bss	00000038 gSdInfo
00000000 l    df *ABS*	00000000 sd_protocol.c
00000000 l    df *ABS*	00000000 lib2-divmod.c
03048344 l     F .text	0000006c udivmodsi4
00000000 l    df *ABS*	00000000 divsf3.c
00000000 l    df *ABS*	00000000 mulsf3.c
00000000 l    df *ABS*	00000000 floatunsisf.c
00000000 l    df *ABS*	00000000 divdf3.c
00000000 l    df *ABS*	00000000 extendsfdf2.c
00000000 l    df *ABS*	00000000 truncdfsf2.c
00000000 l    df *ABS*	00000000 libgcc2.c
00000000 l    df *ABS*	00000000 libgcc2.c
00000000 l    df *ABS*	00000000 fclose.c
00000000 l    df *ABS*	00000000 fflush.c
00000000 l    df *ABS*	00000000 findfp.c
03049d64 l     F .text	00000008 __fp_lock
03049d6c l     F .text	00000008 __fp_unlock
03049d80 l     F .text	0000019c __sinit.part.1
00000000 l    df *ABS*	00000000 fopen.c
00000000 l    df *ABS*	00000000 mallocr.c
00000000 l    df *ABS*	00000000 fseek.c
00000000 l    df *ABS*	00000000 fseeko.c
00000000 l    df *ABS*	00000000 fstatr.c
00000000 l    df *ABS*	00000000 fwalk.c
00000000 l    df *ABS*	00000000 fwrite.c
00000000 l    df *ABS*	00000000 impure.c
030696f8 l     O .rwdata	00000424 impure_data
00000000 l    df *ABS*	00000000 int_errno.c
00000000 l    df *ABS*	00000000 makebuf.c
00000000 l    df *ABS*	00000000 malloc.c
00000000 l    df *ABS*	00000000 mallocr.c
00000000 l    df *ABS*	00000000 memcpy.c
00000000 l    df *ABS*	00000000 memset.c
00000000 l    df *ABS*	00000000 openr.c
00000000 l    df *ABS*	00000000 printf.c
00000000 l    df *ABS*	00000000 putchar.c
00000000 l    df *ABS*	00000000 puts.c
00000000 l    df *ABS*	00000000 refill.c
0304bb24 l     F .text	0000001c lflush
00000000 l    df *ABS*	00000000 sbrkr.c
00000000 l    df *ABS*	00000000 sprintf.c
00000000 l    df *ABS*	00000000 stdio.c
00000000 l    df *ABS*	00000000 strcasecmp.c
00000000 l    df *ABS*	00000000 strcmp.c
00000000 l    df *ABS*	00000000 strcpy.c
00000000 l    df *ABS*	00000000 strlen.c
00000000 l    df *ABS*	00000000 vfprintf.c
03069122 l     O .rodata	00000010 zeroes.4240
03069132 l     O .rodata	00000010 blanks.4239
00000000 l    df *ABS*	00000000 vfprintf.c
03069142 l     O .rodata	00000010 zeroes.4255
030500a8 l     F .text	000000bc __sbprintf
03069152 l     O .rodata	00000010 blanks.4254
00000000 l    df *ABS*	00000000 vsnprintf.c
00000000 l    df *ABS*	00000000 writer.c
00000000 l    df *ABS*	00000000 wsetup.c
00000000 l    df *ABS*	00000000 closer.c
00000000 l    df *ABS*	00000000 ctype_.c
03069263 l     O .rodata	00000180 _ctype_b
00000000 l    df *ABS*	00000000 dtoa.c
03050498 l     F .text	00000200 quorem
00000000 l    df *ABS*	00000000 flags.c
00000000 l    df *ABS*	00000000 fvwrite.c
00000000 l    df *ABS*	00000000 isattyr.c
00000000 l    df *ABS*	00000000 locale.c
03069f44 l     O .rwdata	00000020 lc_ctype_charset
03069f24 l     O .rwdata	00000020 lc_message_charset
03069f64 l     O .rwdata	00000038 lconv
00000000 l    df *ABS*	00000000 lseekr.c
00000000 l    df *ABS*	00000000 memchr.c
00000000 l    df *ABS*	00000000 memmove.c
00000000 l    df *ABS*	00000000 mprec.c
03069400 l     O .rodata	0000000c p05.2710
00000000 l    df *ABS*	00000000 putc.c
00000000 l    df *ABS*	00000000 readr.c
00000000 l    df *ABS*	00000000 mallocr.c
00000000 l    df *ABS*	00000000 s_fpclassify.c
00000000 l    df *ABS*	00000000 vfprintf.c
03069524 l     O .rodata	00000010 zeroes.4184
03069534 l     O .rodata	00000010 blanks.4183
00000000 l    df *ABS*	00000000 vfprintf.c
03055048 l     F .text	000000fc __sprint_r.part.0
03069554 l     O .rodata	00000010 blanks.4199
03069544 l     O .rodata	00000010 zeroes.4200
03056450 l     F .text	000000bc __sbprintf
00000000 l    df *ABS*	00000000 wbuf.c
00000000 l    df *ABS*	00000000 mallocr.c
00000000 l    df *ABS*	00000000 fputwc.c
00000000 l    df *ABS*	00000000 wcrtomb.c
00000000 l    df *ABS*	00000000 wctomb_r.c
00000000 l    df *ABS*	00000000 libgcc2.c
00000000 l    df *ABS*	00000000 libgcc2.c
00000000 l    df *ABS*	00000000 adddf3.c
00000000 l    df *ABS*	00000000 eqdf2.c
00000000 l    df *ABS*	00000000 gedf2.c
00000000 l    df *ABS*	00000000 ledf2.c
00000000 l    df *ABS*	00000000 muldf3.c
00000000 l    df *ABS*	00000000 subdf3.c
00000000 l    df *ABS*	00000000 fixdfsi.c
00000000 l    df *ABS*	00000000 floatsidf.c
00000000 l    df *ABS*	00000000 floatunsidf.c
00000000 l    df *ABS*	00000000 alt_close.c
0305930c l     F .text	00000050 alt_get_errno
00000000 l    df *ABS*	00000000 alt_dev.c
0305942c l     F .text	0000002c alt_dev_null_write
00000000 l    df *ABS*	00000000 alt_errno.c
00000000 l    df *ABS*	00000000 alt_fstat.c
03059458 l     F .text	00000050 alt_get_errno
00000000 l    df *ABS*	00000000 alt_isatty.c
03059558 l     F .text	00000050 alt_get_errno
00000000 l    df *ABS*	00000000 alt_load.c
0305964c l     F .text	00000064 alt_load_section
00000000 l    df *ABS*	00000000 alt_lseek.c
03059730 l     F .text	00000050 alt_get_errno
00000000 l    df *ABS*	00000000 alt_main.c
00000000 l    df *ABS*	00000000 alt_open.c
03059928 l     F .text	00000050 alt_get_errno
03059978 l     F .text	000000cc alt_file_locked
00000000 l    df *ABS*	00000000 alt_read.c
03059b9c l     F .text	00000050 alt_get_errno
00000000 l    df *ABS*	00000000 alt_release_fd.c
00000000 l    df *ABS*	00000000 alt_sbrk.c
0306b4b8 l     O .rwdata	00000004 heap_end
00000000 l    df *ABS*	00000000 alt_tick.c
00000000 l    df *ABS*	00000000 alt_usleep.c
00000000 l    df *ABS*	00000000 alt_write.c
0305a0b8 l     F .text	00000050 alt_get_errno
00000000 l    df *ABS*	00000000 alt_env_lock.c
0306b4c4 l     O .rwdata	00000004 lockid
0306d3fc l     O .bss	00000004 locks
00000000 l    df *ABS*	00000000 alt_malloc_lock.c
0306b4c8 l     O .rwdata	00000004 lockid
0306d404 l     O .bss	00000004 locks
00000000 l    df *ABS*	00000000 os_core.c
0305baec l     F .text	00000044 OS_InitMisc
0305bb30 l     F .text	00000068 OS_InitRdyList
0305bc90 l     F .text	000000e0 OS_InitTCBList
0305ba10 l     F .text	000000dc OS_InitEventList
0305bb98 l     F .text	0000007c OS_InitTaskIdle
0305bc14 l     F .text	0000007c OS_InitTaskStat
0305bef0 l     F .text	00000070 OS_SchedNew
00000000 l    df *ABS*	00000000 os_dbg.c
00000000 l    df *ABS*	00000000 os_flag.c
0305dce4 l     F .text	00000110 OS_FlagTaskRdy
0305da3c l     F .text	000001c4 OS_FlagBlock
00000000 l    df *ABS*	00000000 os_mem.c
00000000 l    df *ABS*	00000000 os_q.c
00000000 l    df *ABS*	00000000 os_sem.c
00000000 l    df *ABS*	00000000 os_task.c
00000000 l    df *ABS*	00000000 os_time.c
00000000 l    df *ABS*	00000000 alt_sys_init.c
03062180 l     F .text	00000038 alt_dev_reg
0306a144 l     O .rwdata	000000dc av_tri_s1_cfi_flash_0
0306a220 l     O .rwdata	0000106c jtag_uart
0306b28c l     O .rwdata	00000124 lcd
0306b3b0 l     O .rwdata	000000d0 rs232
00000000 l    df *ABS*	00000000 altera_avalon_cfi_flash.c
0306228c l     F .text	00000038 alt_flash_device_register
00000000 l    df *ABS*	00000000 altera_avalon_cfi_flash_table.c
030630c8 l     F .text	00000080 alt_read_16bit_query_entry
00000000 l    df *ABS*	00000000 altera_avalon_jtag_uart_fd.c
00000000 l    df *ABS*	00000000 altera_avalon_jtag_uart_init.c
0306421c l     F .text	000002a4 altera_avalon_jtag_uart_irq
030644c0 l     F .text	00000110 altera_avalon_jtag_uart_timeout
00000000 l    df *ABS*	00000000 altera_avalon_jtag_uart_ioctl.c
00000000 l    df *ABS*	00000000 altera_avalon_jtag_uart_read.c
00000000 l    df *ABS*	00000000 altera_avalon_jtag_uart_write.c
00000000 l    df *ABS*	00000000 altera_avalon_lcd_16207.c
0306b540 l     O .rwdata	00000004 colstart
03064c98 l     F .text	000000b4 lcd_write_command
03064d4c l     F .text	000000d4 lcd_write_data
03064e20 l     F .text	000000cc lcd_clear_screen
03064eec l     F .text	000001e8 lcd_repaint_screen
030650d4 l     F .text	000000c8 lcd_scroll_up
0306519c l     F .text	000002a0 lcd_handle_escape
0306595c l     F .text	000000ac alt_lcd_16207_timeout
00000000 l    df *ABS*	00000000 altera_avalon_lcd_16207_fd.c
00000000 l    df *ABS*	00000000 altera_avalon_timer_sc.c
03065bcc l     F .text	00000074 alt_avalon_timer_sc_irq
00000000 l    df *ABS*	00000000 altera_avalon_uart_fd.c
00000000 l    df *ABS*	00000000 altera_avalon_uart_init.c
03065f34 l     F .text	00000098 altera_avalon_uart_irq
03065fcc l     F .text	00000138 altera_avalon_uart_rxirq
03066104 l     F .text	000001a4 altera_avalon_uart_txirq
00000000 l    df *ABS*	00000000 altera_avalon_uart_read.c
030662fc l     F .text	00000050 alt_get_errno
00000000 l    df *ABS*	00000000 altera_avalon_uart_write.c
030665b4 l     F .text	00000050 alt_get_errno
00000000 l    df *ABS*	00000000 alt_alarm_start.c
00000000 l    df *ABS*	00000000 alt_busy_sleep.c
00000000 l    df *ABS*	00000000 alt_dcache_flush.c
00000000 l    df *ABS*	00000000 alt_dcache_flush_all.c
00000000 l    df *ABS*	00000000 alt_dev_llist_insert.c
03066b8c l     F .text	00000050 alt_get_errno
00000000 l    df *ABS*	00000000 alt_do_ctors.c
00000000 l    df *ABS*	00000000 alt_do_dtors.c
00000000 l    df *ABS*	00000000 alt_find_dev.c
00000000 l    df *ABS*	00000000 alt_find_file.c
00000000 l    df *ABS*	00000000 alt_flash_dev.c
00000000 l    df *ABS*	00000000 alt_get_fd.c
00000000 l    df *ABS*	00000000 alt_icache_flush_all.c
00000000 l    df *ABS*	00000000 alt_iic.c
00000000 l    df *ABS*	00000000 alt_iic_isr_register.c
00000000 l    df *ABS*	00000000 alt_io_redirect.c
03067390 l     F .text	000000c0 alt_open_fd
00000000 l    df *ABS*	00000000 alt_irq_vars.c
00000000 l    df *ABS*	00000000 altera_nios2_qsys_irq.c
00000000 l    df *ABS*	00000000 os_cpu_a.o
00000040 l       *ABS*	00000000 OSCtxSw_SWITCH_PC
00000000 l    df *ABS*	00000000 os_cpu_c.c
00000014 l       *ABS*	00000000 OSTCBNext_OFFSET
00000032 l       *ABS*	00000000 OSTCBPrio_OFFSET
00000000 l       *ABS*	00000000 OSTCBStkPtr_OFFSET
00000000 l    df *ABS*	00000000 altera_avalon_cfi_flash_amd.c
03067bb0 l     F .text	000000cc alt_write_word_amd
03067a94 l     F .text	0000011c alt_wait_for_command_to_complete_amd
00000000 l    df *ABS*	00000000 altera_avalon_cfi_flash_intel.c
03067e84 l     F .text	00000178 alt_unlock_block_intel
03067ffc l     F .text	000000d4 alt_write_word_intel
00000000 l    df *ABS*	00000000 alt_icache_flush.c
00000000 l    df *ABS*	00000000 atexit.c
00000000 l    df *ABS*	00000000 exit.c
00000000 l    df *ABS*	00000000 memcmp.c
00000000 l    df *ABS*	00000000 __atexit.c
00000000 l    df *ABS*	00000000 __call_atexit.c
00000000 l    df *ABS*	00000000 alt_exit.c
0304ba50 g     F .text	00000018 putchar
03053528 g     F .text	00000074 _mprec_log10
03044d80 g     F .text	00000124 I2C_Read
0306b516 g     O .rwdata	00000002 OSTaskNameSize
03053614 g     F .text	0000008c __any_on
0305232c g     F .text	00000054 _isatty_r
0306940c g     O .rodata	00000028 __mprec_tinytens
03045dcc g     F .text	00000060 Wave_GetWaveOffset
03059854 g     F .text	000000d4 alt_main
0304c07c g     F .text	00000090 strcpy
0304ba68 g     F .text	000000a8 _puts_r
03062b94 g     F .text	00000040 alt_read_query_entry_32bit
03041504 g     F .text	0000006c Fat_FileBrowseBegin
03076b8c g     O .bss	00000100 alt_irq
03052460 g     F .text	0000005c _lseek_r
0305e548 g     F .text	000000d0 OS_MemInit
03062354 g     F .text	000002a8 alt_flash_cfi_write
0306b550 g       *ABS*	00000000 __flash_rwdata_start
0306211c g     F .text	00000064 OSTimeSet
03040c74 g     F .text	0000001c waveplay_stop
03051dc0 g     F .text	000000ac __sflags
03057ed8 g     F .text	00000084 .hidden __eqdf2
03046c20 g     F .text	00000080 SDLIB_WriteBlock512
0305a768 g     F .text	00000610 OSEventPendMulti
03076c8c g       *ABS*	00000000 __alt_heap_start
03067714 g     F .text	00000020 OSTaskCreateHook
03043f58 g     F .text	00000188 AUDIO_Init
0304ba0c g     F .text	0000003c printf
0306b4ee g     O .rwdata	00000002 OSMboxEn
0305adcc g     F .text	0000007c OSIntEnter
03056904 g     F .text	0000009c _wcrtomb_r
030480a8 g     F .text	000001a8 SD_CMD24
030441a0 g     F .text	00000078 AUDIO_AdcEnableHighPassFilter
0304bf04 g     F .text	0000005c __sseek
0304a0b4 g     F .text	00000010 __sinit
0305650c g     F .text	00000138 __swbuf_r
0306b4fe g     O .rwdata	00000002 OSQEn
03052380 g     F .text	0000007c _setlocale_r
03049f1c g     F .text	00000068 __sfmoreglue
0305a43c g     F .text	000000d0 __malloc_unlock
03067770 g     F .text	0000001c OSTaskStatHook
03041570 g     F .text	0000042c Fat_FileBrowseNext
0306d40c g     O .bss	00000001 OSLockNesting
03048470 g     F .text	00000450 .hidden __divsf3
03045928 g     F .text	00000130 waveGetChunkOffset
03046144 g     F .text	0000002c SDHAL_IsSupport4Bits
0306b53c g     O .rwdata	00000002 OSDataSize
0306d40d g     O .bss	00000001 OSRunning
03046084 g     F .text	00000050 crc7_byte
03042ee8 g     F .text	000000a8 fatIsValidDir
030525a4 g     F .text	0000015c memmove
030677a8 g     F .text	0000001c OSInitHookBegin
0306b534 g     O .rwdata	00000002 OSTmrSize
0304a09c g     F .text	00000018 _cleanup
03044a4c g     F .text	000000f4 aduio_RegWrite
03044c58 g     F .text	0000002c AUDIO_FifoClear
03052700 g     F .text	000000a8 _Balloc
03045534 g     F .text	0000002c LED_AllOff
0306d410 g     O .bss	00000004 OSIdleCtr
03057f5c g     F .text	000000e0 .hidden __gtdf2
03067594 g       .text	00000000 OSStartTsk
00000000  w      *UND*	00000000 __errno
0305c218 g     F .text	000002d4 OS_TCBInit
03044c04 g     F .text	00000054 AUDIO_AdcFifoGetData
03062d2c g     F .text	00000050 alt_write_flash_command_32bit_device_16bit_mode
03045118 g     F .text	00000130 i2c_write
03040000 g     F .entry	0000001c __reset
0306b53a g     O .rwdata	00000002 OSTmrWheelTblSize
030462d0 g     F .text	00000214 SDHAL_GetResponse
03040020 g       *ABS*	00000000 __flash_exceptions_start
0304544c g     F .text	00000080 LCD_Clear
0306b4da g     O .rwdata	00000002 OSEventSize
0306d414 g     O .bss	00000001 OSPrioHighRdy
0304aab4 g     F .text	00000058 _fstat_r
03067734 g     F .text	00000020 OSTaskDelHook
03062844 g     F .text	000002d4 alt_flash_program_block
0306d3c8 g     O .bss	00000004 errno
03040208 g     F .text	00000068 update_status
0304be80 g     F .text	00000008 __seofread
03067574 g       .text	00000000 OSStartHighRdy
03060a2c g     F .text	000001ec OSTaskCreateExt
03054010 g     F .text	00001038 ___svfiprintf_internal_r
0305d588 g     F .text	00000068 OSFlagPendGetFlagsRdy
030428cc g     F .text	00000168 fatNextCluster
0306b51a g     O .rwdata	00000002 OSTaskStatStkSize
0305c678 g     F .text	00000308 OSFlagAccept
0305ec1c g     F .text	000000b8 OSQFlush
0305e618 g     F .text	00000140 OSQAccept
0306d3ec g     O .bss	00000004 alt_argv
03073480 g       *ABS*	00000000 _gp
03059f94 g     F .text	00000124 usleep
03060870 g     F .text	000001bc OSTaskCreate
03060330 g     F .text	00000540 OSTaskChangePrio
0306d408 g     O .bss	00000004 alt_heapsem
0305c4ec g     F .text	0000018c OSDebugInit
03060c18 g     F .text	000003e0 OSTaskDel
03069fc4 g     O .rwdata	00000180 alt_fd_list
03073968 g     O .bss	00000370 OSFlagTbl
0304ba48 g     F .text	00000008 _putchar_r
0305b7fc g     F .text	000000b4 OS_EventTaskRemove
03040340 g     F .text	00000070 is_supporrted_sample_rate
03066d38 g     F .text	00000090 alt_find_dev
0304b728 g     F .text	00000138 memcpy
0306b504 g     O .rwdata	00000002 OSRdyTblSize
03045560 g     F .text	00000050 LED_Display
03049d74 g     F .text	0000000c _cleanup_r
03059198 g     F .text	000000d0 .hidden __floatsidf
03045a58 g     F .text	0000014c WAVE_IsWaveFile
03067450 g     F .text	00000078 alt_io_redirect
0305803c g     F .text	000000e0 .hidden __ltdf2
03068508 g       *ABS*	00000000 __DTOR_END__
03041c4c g     F .text	000000b0 Fat_FileExist
0304bb10 g     F .text	00000014 puts
0305a50c g     F .text	00000120 OSEventNameGet
0306b4e8 g     O .rwdata	00000002 OSFlagMax
030402cc g     F .text	00000074 wait_sdcard_insert
03053dd0 g     F .text	00000074 __fpclassifyd
03047220 g     F .text	00000198 SD_CMD2
03053484 g     F .text	000000a4 __ratio
0305ae48 g     F .text	000000f4 OSIntExit
0305642c g     F .text	00000024 __vfiprintf_internal
0306b522 g     O .rwdata	00000002 OSTCBSize
0306d415 g     O .bss	00000001 OSPrioCur
03064724 g     F .text	000002b4 altera_avalon_jtag_uart_read
0304af58 g     F .text	00000014 malloc
0304b9e0 g     F .text	0000002c _printf_r
03048460 g     F .text	00000008 .hidden __udivsi3
030595a8 g     F .text	000000a4 isatty
0306b508 g     O .rwdata	00000002 OSStkWidth
03044934 g     F .text	0000008c AUDIO_EnableByPass
0306945c g     O .rodata	000000c8 __mprec_tens
0306b4fc g     O .rwdata	00000002 OSPtrSize
03047d80 g     F .text	00000180 SD_ACMD42
030523fc g     F .text	0000000c __locale_charset
03050254 g     F .text	00000040 vsnprintf
0306b4dc g     O .rwdata	00000002 OSEventTblSize
030674e8 g       .text	00000000 OSCtxSw
030680d0 g     F .text	0000008c alt_icache_flush
03044ea4 g     F .text	00000178 I2C_MultipleRead
0306d3d4 g     O .bss	00000004 __malloc_top_pad
0306d418 g     O .bss	00000004 OSTCBList
03044714 g     F .text	00000110 AUDIO_SetLineInVol
0306d3e4 g     O .bss	00000004 alt_fd_list_lock
0306b498 g     O .rwdata	00000004 __mb_cur_max
0305242c g     F .text	0000000c _localeconv_r
030478d4 g     F .text	00000180 SD_CMD7
03040298 g     F .text	00000034 lcd_display
03052b0c g     F .text	0000003c __i2b
03051e6c g     F .text	000004c0 __sfvwrite_r
0306f968 g     O .bss	00002000 TaskPlayMusicStack
03045638 g     F .text	00000060 SEG7_Clear
03073cd8 g     O .bss	00000c30 OSMemTbl
0306d41c g     O .bss	00000001 OSTickStepState
0304bd14 g     F .text	00000054 _sbrk_r
03067c7c g     F .text	00000080 alt_program_intel
03047a54 g     F .text	000001a0 SD_CMD16
030482d0 g     F .text	00000074 ArrayToU32
0306b500 g     O .rwdata	00000002 OSQMax
03074908 g     O .bss	00000800 OSTaskStatStk
0305e178 g     F .text	000000f8 OSMemNameGet
0306b4e0 g     O .rwdata	00000002 OSFlagEn
0305380c g     F .text	0000005c _read_r
0306b526 g     O .rwdata	00000002 OSTimeTickHookEn
03066ad4 g     F .text	00000074 alt_dcache_flush
0305f13c g     F .text	00000168 OSQPost
0305ddf4 g     F .text	000000a0 OS_FlagUnlink
0306b4b0 g     O .rwdata	00000004 alt_max_fd
03062b18 g     F .text	0000003c alt_read_query_entry_8bit
0305bdc0 g     F .text	00000064 OS_MemCopy
030439d0 g     F .text	000003d4 fatMount
0305be24 g     F .text	000000cc OS_Sched
030499cc g     F .text	000000f0 _fclose_r
0305e088 g     F .text	000000f0 OSMemGet
030612f8 g     F .text	000001c0 OSTaskNameSet
03067cfc g     F .text	00000188 alt_erase_block_intel
03049d34 g     F .text	00000030 fflush
030442c8 g     F .text	000000e0 AUDIO_DacEnableZeroCross
0306d3d0 g     O .bss	00000004 __malloc_max_sbrked_mem
030453ec g     F .text	00000060 LCD_TextOut
0306d420 g     O .bss	00000004 OSCtxSwCtr
0306778c g     F .text	0000001c OSTimeTickHook
0306b4ea g     O .rwdata	00000002 OSFlagNameSize
030496c0 g     F .text	00000110 .hidden __extendsfdf2
0305b8b0 g     F .text	000000fc OS_EventTaskRemoveMulti
0305763c g     F .text	0000089c .hidden __adddf3
03042f90 g     F .text	00000048 fatIsUnusedDir
03040a08 g     F .text	0000026c waveplay_execute
0305b6b0 g     F .text	0000014c OS_EventTaskWaitMulti
0305322c g     F .text	0000011c __b2d
0306b502 g     O .rwdata	00000002 OSQSize
030570ac g     F .text	00000590 .hidden __umoddi3
03059780 g     F .text	000000d4 lseek
0305fc40 g     F .text	00000268 OSSemPend
0306b484 g     O .rwdata	00000004 _global_impure_ptr
03053868 g     F .text	00000568 _realloc_r
0306b4ec g     O .rwdata	00000002 OSLowestPrio
03076c8c g       *ABS*	00000000 __bss_end
030672a0 g     F .text	000000f0 alt_iic_isr_register
030677fc g     F .text	00000020 OSTCBInitHook
0306b532 g     O .rwdata	00000002 OSTmrCfgTicksPerSec
03059e90 g     F .text	00000104 alt_tick
03056aec g     F .text	000005c0 .hidden __udivdi3
03056724 g     F .text	00000184 _fputwc_r
0306b4d4 g     O .rwdata	00000002 OSEventEn
03069434 g     O .rodata	00000028 __mprec_bigtens
030528f0 g     F .text	00000104 __s2b
0306b52e g     O .rwdata	00000002 OSTmrCfgNameSize
0306d3c0 g     O .bss	00000004 play_music
03059268 g     F .text	000000a4 .hidden __floatunsidf
03044128 g     F .text	00000078 AUDIO_MicBoost
03052fd4 g     F .text	00000060 __mcmp
03065dd8 g     F .text	0000015c altera_avalon_uart_init
03043da4 g     F .text	0000003c SD_ReadBlock512
0304a0d4 g     F .text	00000018 __fp_lock_all
03067254 g     F .text	0000004c alt_ic_irq_enabled
03044c84 g     F .text	000000fc I2C_Write
03041cfc g     F .text	00000220 Fat_FileOpen
0305dc00 g     F .text	000000e4 OS_FlagInit
030456f8 g     F .text	00000074 SEG7_Number
03059df8 g     F .text	00000098 alt_alarm_stop
030454cc g     F .text	0000003c LCD_Close
0306b510 g     O .rwdata	00000002 OSTaskIdleStkSize
0306d45c g     O .bss	00000004 alt_irq_active
0305f828 g     F .text	000000b0 OSSemAccept
0304a64c g     F .text	00000444 _fseeko_r
0305e388 g     F .text	000000d8 OSMemPut
03042bac g     F .text	000001e8 fatDelClusterList
0305de94 g     F .text	000001f4 OSMemCreate
0306d424 g     O .bss	00000004 OSIdleCtrMax
030400ec g     F .exceptions	000000d0 alt_irq_handler
03069f9c g     O .rwdata	00000028 alt_dev_null
0306b524 g     O .rwdata	00000002 OSTicksPerSec
030461dc g     F .text	000000f4 SDHAL_SendCmd
0306302c g     F .text	0000009c alt_set_flash_algorithm_func
0304501c g     F .text	00000088 i2c_start
030674e8 g       .text	00000000 OSIntCtxSw
03066b48 g     F .text	00000044 alt_dcache_flush_all
030529f4 g     F .text	00000068 __hi0bits
030464e4 g     F .text	00000148 SDHAL_ReadData
03059110 g     F .text	00000088 .hidden __fixdfsi
03062bd4 g     F .text	00000044 alt_write_flash_command_8bit_device_8bit_mode
0306d428 g     O .bss	00000004 OSTCBFreeList
0306b550 g       *ABS*	00000000 __ram_rwdata_end
0305fea8 g     F .text	0000016c OSSemPendAbort
0306b4a8 g     O .rwdata	00000008 alt_dev_list
03041408 g     F .text	00000044 Fat_Mount
0305a108 g     F .text	000000f8 write
030536a0 g     F .text	000000a0 _putc_r
0306b528 g     O .rwdata	00000002 OSVersionNbr
030696e8 g       *ABS*	00000000 __ram_rodata_end
030594a8 g     F .text	000000b0 fstat
0305803c g     F .text	000000e0 .hidden __ledf2
03045e5c g     F .text	0000006c myprintf
03063e94 g     F .text	000000d8 alt_check_primary_table
0306b4d0 g     O .rwdata	00000004 OSEndiannessTest
03040270 g     F .text	00000028 lcd_open
03052d44 g     F .text	00000140 __pow5mult
0305515c g     F .text	000012d0 ___vfiprintf_internal_r
0306d3e0 g     O .bss	00000004 __nlocale_changed
03048468 g     F .text	00000008 .hidden __umodsi3
03062688 g     F .text	00000064 alt_flash_cfi_read
03062dcc g     F .text	00000038 alt_write_native_8bit
030449c0 g     F .text	0000008c AUDIO_EnableSiteTone
0306b4e2 g     O .rwdata	00000002 OSFlagGrpSize
03076c8c g       *ABS*	00000000 end
03062c18 g     F .text	00000078 alt_write_flash_command_16bit_device_8bit_mode
03045508 g     F .text	0000002c LED_AllOn
0306543c g     F .text	00000520 altera_avalon_lcd_16207_write
0304aa90 g     F .text	00000024 fseeko
03066604 g     F .text	00000238 altera_avalon_uart_write
0304a628 g     F .text	00000024 fseek
03063148 g     F .text	000005c8 alt_read_cfi_table
03071968 g     O .bss	00002000 TaskReadSDStack
030640d0 g     F .text	0000014c altera_avalon_jtag_uart_init
0305c084 g     F .text	000000cc OS_TaskStat
03068508 g       *ABS*	00000000 __CTOR_LIST__
03080000 g       *ABS*	00000000 __alt_stack_pointer
03065c40 g     F .text	00000088 alt_avalon_timer_sc_init
03065d28 g     F .text	00000060 altera_avalon_uart_write_fd
03049968 g     F .text	00000064 .hidden __clzsi2
03065d88 g     F .text	00000050 altera_avalon_uart_close_fd
030649d8 g     F .text	000002c0 altera_avalon_jtag_uart_write
030424f8 g     F .text	00000044 Fat_FileClose
030622c4 g     F .text	00000090 alt_flash_cfi_init
0304a0c4 g     F .text	00000004 __sfp_lock_acquire
0304199c g     F .text	0000006c Fat_FileCount
030524bc g     F .text	000000e8 memchr
0305bd70 g     F .text	00000050 OS_MemClr
0304e134 g     F .text	00001f50 ___vfprintf_internal_r
030675b8 g     F .text	0000015c OSTaskStkInit
0304bd68 g     F .text	00000058 _sprintf_r
0304a334 g     F .text	000002f0 _free_r
03052408 g     F .text	00000010 __locale_mb_cur_max
0305b40c g     F .text	00000198 OS_EventTaskRdy
03068338 g     F .text	00000194 __call_exitprocs
0306d42c g     O .bss	00000001 OSCPUUsage
0306d3dc g     O .bss	00000004 __mlocale_changed
0306b48c g     O .rwdata	00000004 __malloc_sbrk_base
030401bc g     F .text	0000004c _start
0306d3f4 g     O .bss	00000004 _alt_tick_rate
0305ecd4 g     F .text	000002fc OSQPend
03061c24 g     F .text	00000148 OSTimeDly
03052e84 g     F .text	00000150 __lshift
0306d3f8 g     O .bss	00000004 _alt_nticks
03046cf0 g     F .text	00000088 SD_CMD0
03059bec g     F .text	000000fc read
030621ec g     F .text	000000a0 alt_sys_init
03053e44 g     F .text	000001cc __ssprint_r
0304b984 g     F .text	0000005c _open_r
03068224 g     F .text	00000114 __register_exitproc
0306d42d g     O .bss	00000001 OSTaskCtr
030443a8 g     F .text	0000008c AUDIO_DacEnableSoftMute
0304680c g     F .text	00000060 SDHAL_DummyClock
03041f1c g     F .text	00000044 Fat_FileSize
03062b54 g     F .text	00000040 alt_read_query_entry_16bit
03061d6c g     F .text	0000015c OSTimeDlyHMSM
03045fe0 g     F .text	000000a4 crc16
03052b48 g     F .text	000001fc __multiply
03046ca0 g     F .text	00000028 SD_Init
030645d0 g     F .text	00000068 altera_avalon_jtag_uart_close
030696e8 g       *ABS*	00000000 __ram_rwdata_start
03068508 g       *ABS*	00000000 __ram_rodata_start
0306f940 g     O .bss	00000028 __malloc_current_mallinfo
0306b4d6 g     O .rwdata	00000002 OSEventMax
03062e70 g     F .text	000001bc alt_set_flash_width_func
03053348 g     F .text	0000013c __d2b
03060014 g     F .text	00000110 OSSemPost
0304bf68 g     F .text	00000070 strcasecmp
0305afc4 g     F .text	000000d8 OSSchedUnlock
03063f6c g     F .text	00000060 altera_avalon_jtag_uart_read_fd
03066f94 g     F .text	000000fc alt_get_fd
0306d430 g     O .bss	00000004 OSMemFreeList
0305b108 g     F .text	000000ac OSStatInit
0306697c g     F .text	00000158 alt_busy_sleep
0305d978 g     F .text	000000c4 OSFlagQuery
0306b50c g     O .rwdata	00000002 OSTaskCreateExtEn
03050444 g     F .text	00000054 _close_r
03067884 g     F .text	00000210 alt_erase_block_amd
03041f60 g     F .text	00000498 Fat_FileRead
030681a8 g     F .text	0000007c memcmp
0305b3f0 g     F .text	0000001c OS_Dummy
0306402c g     F .text	00000050 altera_avalon_jtag_uart_close_fd
03076c8c g       *ABS*	00000000 __alt_stack_base
0306407c g     F .text	00000054 altera_avalon_jtag_uart_ioctl_fd
0304ac94 g     F .text	000000cc _fwrite_r
030438c0 g     F .text	00000110 fatFindUnusedDirectory
03046170 g     F .text	0000006c SDHAL_Init
030502f0 g     F .text	00000154 __swsetup_r
03063710 g     F .text	00000784 alt_read_cfi_width
03075108 g     O .bss	000001e0 OSQTbl
03048df4 g     F .text	000008cc .hidden __divdf3
03049f84 g     F .text	00000118 __sfp
0305359c g     F .text	00000078 __copybits
03044218 g     F .text	000000b0 AUDIO_DacDeemphasisControl
03069b1c g     O .rwdata	00000408 __malloc_av_
03045d38 g     F .text	00000094 Wave_GetDataByteSize
0304a0d0 g     F .text	00000004 __sinit_lock_release
03050164 g     F .text	000000f0 _vsnprintf_r
030450a4 g     F .text	00000074 i2c_stop
0306d434 g     O .bss	00000004 OSTCBHighRdy
0305811c g     F .text	00000724 .hidden __muldf3
0304be2c g     F .text	00000054 __sread
0304253c g     F .text	00000214 Fat_SpeedTest
03041164 g     F .text	0000026c TaskReadSD
0306d438 g     O .bss	00000004 OSQFreeList
03045698 g     F .text	00000060 SEG7_Full
03066dc8 g     F .text	00000114 alt_find_file
0304583c g     F .text	000000ec SEG7_Decimal
03066bdc g     F .text	000000a4 alt_dev_llist_insert
0305a31c g     F .text	00000120 __malloc_lock
03059d48 g     F .text	000000b0 sbrk
0304c1a4 g     F .text	00001f90 ___svfprintf_internal_r
030445a0 g     F .text	00000090 AUDIO_SetInputSource
0305a62c g     F .text	0000013c OSEventNameSet
03049cd8 g     F .text	0000005c _fflush_r
03056660 g     F .text	000000c4 _calloc_r
0306d43c g     O .bss	00000001 OSRdyGrp
0306b544 g     O .rwdata	00000008 alt_flash_dev_list
030440e0 g     F .text	00000048 AUDIO_InterfaceActive
03062ce0 g     F .text	0000004c alt_write_flash_command_16bit_device_16bit_mode
03043814 g     F .text	000000ac fatFindDirectory
0304a1f4 g     F .text	0000001c fopen
0306d3b8 g       *ABS*	00000000 __bss_start
03045c38 g     F .text	00000080 Wave_GetChannelNum
0304b860 g     F .text	00000124 memset
030410f4 g     F .text	00000070 main
03043784 g     F .text	00000090 fatReadSecter
0306d3f0 g     O .bss	00000004 alt_envp
0306d3cc g     O .bss	00000004 __malloc_max_total_mem
03045ec8 g     F .text	00000088 myprintf_hexarray
03063fcc g     F .text	00000060 altera_avalon_jtag_uart_write_fd
03045248 g     F .text	00000154 i2c_read
03056644 g     F .text	0000001c __swbuf
03069580 g     O .rodata	00000100 OSUnMapTbl
03065a08 g     F .text	00000164 altera_avalon_lcd_16207_init
0306b506 g     O .rwdata	00000002 OSSemEn
030413d0 g     F .text	00000038 TaskPlayMusic
0305d5f0 g     F .text	00000388 OSFlagPost
0304bf60 g     F .text	00000008 __sclose
03042fd8 g     F .text	00000724 fatDump
03080000 g       *ABS*	00000000 __alt_heap_limit
03049abc g     F .text	00000014 fclose
0305b5a4 g     F .text	0000010c OS_EventTaskWait
030497d0 g     F .text	00000198 .hidden __truncdfsf2
0305c150 g     F .text	000000c8 OS_TaskStatStkChk
03060ff8 g     F .text	00000158 OSTaskDelReq
03050698 g     F .text	00001728 _dtoa_r
0304af80 g     F .text	000007a8 _malloc_r
03056a60 g     F .text	00000030 __ascii_wctomb
03048290 g     F .text	00000040 SD_WriteData
0306b4b4 g     O .rwdata	00000004 alt_errno
0305b09c g     F .text	0000006c OSStart
03062d7c g     F .text	00000050 alt_write_flash_command_32bit_device_32bit_mode
0305a2c0 g     F .text	0000005c __env_unlock
0304ab0c g     F .text	000000c4 _fwalk
030614b8 g     F .text	000001f8 OSTaskResume
0305e460 g     F .text	000000e8 OSMemQuery
0306b518 g     O .rwdata	00000002 OSTaskStatEn
030626ec g     F .text	00000158 alt_write_value_to_flash
0306b4f2 g     O .rwdata	00000002 OSMemMax
0305f2a4 g     F .text	00000170 OSQPostFront
03042d94 g     F .text	00000088 fatDumpDate
03062e04 g     F .text	00000038 alt_write_native_16bit
030460d4 g     F .text	00000070 crc7
03053740 g     F .text	000000cc putc
030423f8 g     F .text	00000100 Fat_FileSeek
030483b0 g     F .text	00000054 .hidden __divsi3
0304539c g     F .text	00000050 LCD_Open
03047bf4 g     F .text	0000018c SD_ACMD6
0306d43d g     O .bss	00000003 OSRdyTbl
0306b4cc g     O .rwdata	00000002 OSDebugEn
0304a210 g     F .text	00000124 _malloc_trim_r
03068508 g       *ABS*	00000000 __CTOR_END__
030488c0 g     F .text	00000424 .hidden __mulsf3
0306b4e4 g     O .rwdata	00000002 OSFlagNodeSize
030444c0 g     F .text	000000e0 AUDIO_LineInMute
0306b52c g     O .rwdata	00000002 OSTmrCfgMax
0304bfd8 g     F .text	000000a4 strcmp
03043de0 g     F .text	0000003c SD_WriteBlock512
0305e758 g     F .text	000001fc OSQCreate
03044434 g     F .text	0000008c AUDIO_MicMute
03061150 g     F .text	000001a8 OSTaskNameGet
03068508 g       *ABS*	00000000 __flash_rodata_start
0305f414 g     F .text	0000020c OSQPostOpt
0305b1b4 g     F .text	0000021c OSTimeTick
0306b514 g     O .rwdata	00000002 OSTaskMax
03068508 g       *ABS*	00000000 __DTOR_LIST__
0305f8d8 g     F .text	00000100 OSSemCreate
0306b538 g     O .rwdata	00000002 OSTmrWheelSize
030436fc g     F .text	00000088 fatArray2Value
03046cc8 g     F .text	00000028 SD_IsSupport4Bits
03057ed8 g     F .text	00000084 .hidden __nedf2
0306b50e g     O .rwdata	00000002 OSTaskDelEn
03042800 g     F .text	000000cc fat32ClusterType
03060124 g     F .text	00000110 OSSemQuery
0305e954 g     F .text	000002c8 OSQDel
0305efd0 g     F .text	0000016c OSQPendAbort
030621b8 g     F .text	00000034 alt_irq_init
03059ce8 g     F .text	00000060 alt_release_fd
0304bdc0 g     F .text	0000006c sprintf
03068fd8 g     O .rodata	00000100 .hidden __clz_tab
0304576c g     F .text	000000d0 SEG7_Hex
03045e2c g     F .text	00000030 debug_output
0306d3d8 g     O .bss	00000004 _PathLocale
03047084 g     F .text	0000019c SD_ACMD41
0306815c g     F .text	00000014 atexit
03050294 g     F .text	0000005c _write_r
03046d78 g     F .text	0000018c SD_CMD8
03041a9c g     F .text	000001b0 fatComposeShortFilename
0305af3c g     F .text	00000088 OSSchedLock
03052438 g     F .text	0000001c setlocale
0305c980 g     F .text	00000128 OSFlagCreate
0306b488 g     O .rwdata	00000004 _impure_ptr
0306d3e8 g     O .bss	00000004 alt_argc
03049ad0 g     F .text	00000208 __sflush_r
03066cdc g     F .text	0000005c _do_dtors
03052424 g     F .text	00000008 __locale_cjk_lang
03041498 g     F .text	0000006c Fat_Type
03045f50 g     F .text	00000090 myprintf_dwordarray
0306b4de g     O .rwdata	00000002 OSEventMultiEn
0304a624 g     F .text	00000004 _fseek_r
03044bc8 g     F .text	0000003c AUDIO_AdcFifoNotEmpty
0304bb40 g     F .text	000001d4 __srefill_r
0305caa8 g     F .text	00000270 OSFlagDel
0306d440 g     O .bss	00000004 OSEventFreeList
03040020 g       .exceptions	00000000 alt_irq_entry
030531cc g     F .text	00000060 __ulp
0305cf98 g     F .text	000005f0 OSFlagPend
0306b52a g     O .rwdata	00000002 OSTmrEn
0304a0ec g     F .text	00000018 __fp_unlock_all
03040e44 g     F .text	000002b0 Fat_Test
03042750 g     F .text	000000b0 fat16ClusterType
03065b6c g     F .text	00000060 altera_avalon_lcd_16207_write_fd
03044b7c g     F .text	0000004c AUDIO_DacFifoSetData
0306b4a0 g     O .rwdata	00000008 alt_fs_list
03046f04 g     F .text	00000180 SD_CMD55
0305bf60 g     F .text	00000074 OS_StrCopy
03062c90 g     F .text	00000050 alt_write_flash_command_32bit_device_8bit_mode
0306b4f4 g     O .rwdata	00000002 OSMemNameSize
030677c4 g     F .text	0000001c OSInitHookEnd
03047714 g     F .text	000001c0 SD_CMD10
03040020 g       *ABS*	00000000 __ram_exceptions_start
0306b520 g     O .rwdata	00000002 OSTCBPrioTblMax
03044630 g     F .text	000000e4 AUDIO_SetSampleRate
03052454 g     F .text	0000000c localeconv
03040000 g       *ABS*	00000000 __alt_mem_onchip_memory2
03041a08 g     F .text	00000094 fatSameLongFilename
0306b51c g     O .rwdata	00000002 OSTaskStatStkChkEn
03040c90 g     F .text	000001b4 handle_key
02800000 g       *ABS*	00000000 __alt_mem_av_tri_s1_cfi_flash_0
030670c0 g     F .text	00000050 alt_ic_isr_register
0306b4f0 g     O .rwdata	00000002 OSMemEn
0304ad60 g     F .text	00000040 fwrite
0306b4fa g     O .rwdata	00000002 OSMutexEn
0306b550 g       *ABS*	00000000 _edata
03042e1c g     F .text	00000088 fatDumpTime
03065cc8 g     F .text	00000060 altera_avalon_uart_read_fd
03076c8c g       *ABS*	00000000 _end
03066edc g     F .text	00000068 alt_flash_open_dev
0306d444 g     O .bss	00000001 OSIntNesting
03044824 g     F .text	00000110 AUDIO_SetLineOutVol
03047554 g     F .text	000001c0 SD_CMD9
030401bc g       *ABS*	00000000 __ram_exceptions_end
03064638 g     F .text	000000ec altera_avalon_jtag_uart_ioctl
03061ec8 g     F .text	000001f0 OSTimeDlyResume
0305ce48 g     F .text	00000150 OSFlagNameSet
030616b0 g     F .text	000001c8 OSTaskStkChk
030671b0 g     F .text	000000a4 alt_ic_irq_disable
0306b4f6 g     O .rwdata	00000002 OSMemSize
0304be88 g     F .text	0000007c __swrite
0306b490 g     O .rwdata	00000004 __malloc_trim_threshold
030403b0 g     F .text	000003ec build_wave_play_list
030674c8 g     F .text	00000020 altera_nios2_qsys_irq_init
03052418 g     F .text	0000000c __locale_msgcharset
0306d448 g     O .bss	00000004 OSTCBCur
03068170 g     F .text	00000038 exit
030455b0 g     F .text	00000088 LED_LightCount
03043e1c g     F .text	0000013c fatMountSdcard
0306b4f8 g     O .rwdata	00000002 OSMemTblSize
0304abd0 g     F .text	000000c4 _fwalk_reent
03048ce4 g     F .text	00000110 .hidden __floatunsisf
03053034 g     F .text	00000198 __mdiff
0304079c g     F .text	0000026c waveplay_start
03066f44 g     F .text	00000050 alt_flash_close_dev
03048404 g     F .text	0000005c .hidden __modsi3
0306b494 g     O .rwdata	00000004 __ctype_ptr__
03080000 g       *ABS*	00000000 __alt_data_end
03040020 g     F .exceptions	00000000 alt_exception
0304a0c8 g     F .text	00000004 __sfp_lock_release
0305ad78 g     F .text	00000054 OSInit
03061a8c g     F .text	0000012c OSTaskQuery
0305f77c g     F .text	000000ac OS_QInit
0305bfd4 g     F .text	00000054 OS_StrLen
0305e270 g     F .text	00000118 OSMemNameSet
0304686c g     F .text	00000334 SDLIB_Init
03069162 g     O .rodata	00000101 _ctype_
0306b512 g     O .rwdata	00000002 OSTaskProfileEn
03047f00 g     F .text	000001a8 SD_CMD17
0306d44c g     O .bss	00000004 OSTime
030662a8 g     F .text	00000054 altera_avalon_uart_close
030752e8 g     O .bss	00000800 OSTaskIdleStk
0304a104 g     F .text	000000f0 _fopen_r
030684cc g     F .text	0000003c _exit
0306683c g     F .text	00000140 alt_alarm_start
0305cd18 g     F .text	00000130 OSFlagNameGet
030620b8 g     F .text	00000064 OSTimeGet
0304ada0 g     F .text	000001b8 __smakebuf_r
03062e3c g     F .text	00000034 alt_write_native_32bit
0304c10c g     F .text	00000098 strlen
03067754 g     F .text	0000001c OSTaskSwHook
03059a44 g     F .text	00000158 open
03044b40 g     F .text	0000003c AUDIO_DacFifoNotFull
03075ae8 g     O .bss	00000b40 OSEventTbl
03057f5c g     F .text	000000e0 .hidden __gedf2
03076628 g     O .bss	00000510 OSTCBTbl
03060234 g     F .text	000000fc OSSemSet
030625fc g     F .text	0000008c alt_flash_cfi_get_info
0306b49c g     O .rwdata	00000004 __wctomb
03055144 g     F .text	00000018 __sprint_r
03067090 g     F .text	00000030 alt_icache_flush_all
0306b54c g     O .rwdata	00000004 alt_priority_mask
0305f9d8 g     F .text	00000268 OSSemDel
0306d450 g     O .bss	00000004 OSFlagFreeList
03067110 g     F .text	000000a0 alt_ic_irq_enable
0306b4d8 g     O .rwdata	00000002 OSEventNameSize
0304662c g     F .text	000001e0 SDHAL_WriteData
03045ba4 g     F .text	00000094 Wave_GetSampleRate
03050084 g     F .text	00000024 __vfprintf_internal
03042a34 g     F .text	00000178 fatFindUnusedCluster
0306d454 g     O .bss	00000001 OSStatRdy
03076b38 g     O .bss	00000054 OSTCBPrioTbl
0306634c g     F .text	00000268 altera_avalon_uart_read
03056a90 g     F .text	0000005c _wctomb_r
0305a200 g     F .text	000000c0 __env_lock
0306b51e g     O .rwdata	00000002 OSTaskSwHookEn
03045cb8 g     F .text	00000080 Wave_GetSampleBitNum
03058840 g     F .text	000008d0 .hidden __subdf3
03052a5c g     F .text	000000b0 __lo0bits
0306b4bc g     O .rwdata	00000008 alt_alarm_list
0306b4e6 g     O .rwdata	00000002 OSFlagWidth
03066c80 g     F .text	0000005c _do_ctors
03048250 g     F .text	00000040 SD_ReadData
030569a0 g     F .text	000000c0 wcrtomb
0305935c g     F .text	000000d0 close
0306781c g     F .text	00000068 alt_program_amd
0304144c g     F .text	0000004c Fat_Unmount
0306d400 g     O .bss	00000004 alt_envsem
0306d458 g     O .bss	00000004 OSIdleCtrRun
0305b3d0 g     F .text	00000020 OSVersion
0306b530 g     O .rwdata	00000002 OSTmrCfgWheelSize
030596b0 g     F .text	00000080 alt_load
03061bb8 g     F .text	0000006c OS_TaskStkClr
0306b50a g     O .rwdata	00000002 OSTaskCreateEn
0305b9ac g     F .text	00000064 OS_EventWaitListInit
030568a8 g     F .text	0000005c fputwc
030677e0 g     F .text	0000001c OSTaskIdleHook
0304af6c g     F .text	00000014 free
0304a0cc g     F .text	00000004 __sinit_lock_acquire
030527d0 g     F .text	00000120 __multadd
03042ea4 g     F .text	00000044 fatIsLastDir
03061878 g     F .text	00000214 OSTaskSuspend
030527a8 g     F .text	00000028 _Bfree
030473b8 g     F .text	0000019c SD_CMD3
0305c028 g     F .text	0000005c OS_TaskIdle
0306b536 g     O .rwdata	00000002 OSTmrTblSize
03046ba0 g     F .text	00000080 SDLIB_ReadBlock512
0305f620 g     F .text	0000015c OSQQuery



Disassembly of section .entry:

03040000 <__reset>:
#if NIOS2_ICACHE_SIZE > 0 && defined(ALT_ALLOW_CODE_AT_RESET) && !defined(ALT_SIM_OPTIMIZE)
    /* Assume the instruction cache size is always a power of two. */
#if NIOS2_ICACHE_SIZE > 0x8000
    movhi r2, %hi(NIOS2_ICACHE_SIZE)
#else
    movui r2, NIOS2_ICACHE_SIZE
 3040000:	00840014 	movui	r2,4096
#endif

0:
    initi r2
 3040004:	1001483a 	initi	r2
    addi r2, r2, -NIOS2_ICACHE_LINE_SIZE
 3040008:	10bff804 	addi	r2,r2,-32
    bgt r2, zero, 0b
 304000c:	00bffd16 	blt	zero,r2,3040004 <__alt_data_end+0xfffc0004>
 * Jump to the _start entry point in the .text section if reset code
 * is allowed or if optimizing for RTL simulation.
 */
#if defined(ALT_ALLOW_CODE_AT_RESET) || defined(ALT_SIM_OPTIMIZE)
    /* Jump to the _start entry point in the .text section. */
    movhi r1, %hi(_start)
 3040010:	0040c134 	movhi	at,772
    ori r1, r1, %lo(_start)
 3040014:	08406f14 	ori	at,at,444
    jmp r1
 3040018:	0800683a 	jmp	at
 304001c:	00000000 	call	0 <OSTCBStkPtr_OFFSET>

Disassembly of section .exceptions:

03040020 <alt_exception>:

#else /* ALT_EXCEPTION_STACK disabled */
        /* 
         * Reserve space on normal stack for registers about to be pushed.
         */
        addi  sp, sp, -76
 3040020:	deffed04 	addi	sp,sp,-76
         * documentation for details).
         *
         * Leave a gap in the stack frame at 4(sp) for the muldiv handler to
         * store zero into.
         */
        stw   ra,  0(sp)
 3040024:	dfc00015 	stw	ra,0(sp)
        stw   r1,   8(sp)
 3040028:	d8400215 	stw	at,8(sp)
        stw   r2,  12(sp)
 304002c:	d8800315 	stw	r2,12(sp)
        stw   r3,  16(sp)
 3040030:	d8c00415 	stw	r3,16(sp)
        stw   r4,  20(sp)
 3040034:	d9000515 	stw	r4,20(sp)
        stw   r5,  24(sp)
 3040038:	d9400615 	stw	r5,24(sp)
        stw   r6,  28(sp)
 304003c:	d9800715 	stw	r6,28(sp)
        stw   r7,  32(sp)
 3040040:	d9c00815 	stw	r7,32(sp)
        rdctl r5, estatus   /* Read early to avoid usage stall */
 3040044:	000b307a 	rdctl	r5,estatus
        stw   r8,  36(sp)
 3040048:	da000915 	stw	r8,36(sp)
        stw   r9,  40(sp)
 304004c:	da400a15 	stw	r9,40(sp)
        stw   r10, 44(sp)
 3040050:	da800b15 	stw	r10,44(sp)
        stw   r11, 48(sp)
 3040054:	dac00c15 	stw	r11,48(sp)
        stw   r12, 52(sp)
 3040058:	db000d15 	stw	r12,52(sp)
        stw   r13, 56(sp)
 304005c:	db400e15 	stw	r13,56(sp)
        stw   r14, 60(sp)
 3040060:	db800f15 	stw	r14,60(sp)
        stw   r15, 64(sp)
 3040064:	dbc01015 	stw	r15,64(sp)
        /*
         * ea-4 contains the address of the instruction being executed
         * when the exception occured. For interrupt exceptions, we will
         * will be re-issue the isntruction. Store it in 72(sp)
         */
        stw   r5,  68(sp)  /* estatus */
 3040068:	d9401115 	stw	r5,68(sp)
        addi  r15, ea, -4  /* instruction that caused exception */
 304006c:	ebffff04 	addi	r15,ea,-4
        stw   r15,  72(sp)
 3040070:	dbc01215 	stw	r15,72(sp)
#else
        /*
         * Test to see if the exception was a software exception or caused 
         * by an external interrupt, and vector accordingly.
         */
        rdctl r4, ipending
 3040074:	0009313a 	rdctl	r4,ipending
        andi  r2, r5, 1
 3040078:	2880004c 	andi	r2,r5,1
        beq   r2, zero, .Lnot_irq
 304007c:	10000326 	beq	r2,zero,304008c <alt_exception+0x6c>
        beq   r4, zero, .Lnot_irq
 3040080:	20000226 	beq	r4,zero,304008c <alt_exception+0x6c>
        /*
         * Now that all necessary registers have been preserved, call 
         * alt_irq_handler() to process the interrupts.
         */

        call alt_irq_handler
 3040084:	30400ec0 	call	30400ec <alt_irq_handler>

        .section .exceptions.irqreturn, "xa"

        br    .Lexception_exit
 3040088:	00000306 	br	3040098 <alt_exception_unknown+0x4>
         * upon completion, so we write ea (address of instruction *after*
         * the one where the exception occured) into 72(sp). The actual
         * instruction that caused the exception is written in r2, which these
         * handlers will utilize.
         */
        stw   ea,  72(sp)  /* Don't re-issue */
 304008c:	df401215 	stw	ea,72(sp)
        ldw   r2, -4(ea)   /* Instruction that caused exception */
 3040090:	e8bfff17 	ldw	r2,-4(ea)

03040094 <alt_exception_unknown>:
#ifdef NIOS2_HAS_DEBUG_STUB
       /*
        *  Either tell the user now (if there is a debugger attached) or go into
        *  the debug monitor which will loop until a debugger is attached.
        */
        break
 3040094:	003da03a 	break	0
        /* 
         * Restore the saved registers, so that all general purpose registers 
         * have been restored to their state at the time the interrupt occured.
         */

        ldw   r5,  68(sp)
 3040098:	d9401117 	ldw	r5,68(sp)
        ldw   ea,  72(sp)  /* This becomes the PC once eret is executed */
 304009c:	df401217 	ldw	ea,72(sp)
        ldw   ra,   0(sp)
 30400a0:	dfc00017 	ldw	ra,0(sp)

        wrctl estatus, r5
 30400a4:	2801707a 	wrctl	estatus,r5

        ldw   r1,   8(sp)
 30400a8:	d8400217 	ldw	at,8(sp)
        ldw   r2,  12(sp)
 30400ac:	d8800317 	ldw	r2,12(sp)
        ldw   r3,  16(sp)
 30400b0:	d8c00417 	ldw	r3,16(sp)
        ldw   r4,  20(sp)
 30400b4:	d9000517 	ldw	r4,20(sp)
        ldw   r5,  24(sp)
 30400b8:	d9400617 	ldw	r5,24(sp)
        ldw   r6,  28(sp)
 30400bc:	d9800717 	ldw	r6,28(sp)
        ldw   r7,  32(sp)
 30400c0:	d9c00817 	ldw	r7,32(sp)

#if defined(ALT_EXCEPTION_STACK) && defined(ALT_STACK_CHECK)
        ldw   et, %gprel(alt_exception_old_stack_limit)(gp)
#endif

        ldw   r8,  36(sp)
 30400c4:	da000917 	ldw	r8,36(sp)
        ldw   r9,  40(sp)
 30400c8:	da400a17 	ldw	r9,40(sp)
        ldw   r10, 44(sp)
 30400cc:	da800b17 	ldw	r10,44(sp)
        ldw   r11, 48(sp)
 30400d0:	dac00c17 	ldw	r11,48(sp)
        ldw   r12, 52(sp)
 30400d4:	db000d17 	ldw	r12,52(sp)
        ldw   r13, 56(sp)
 30400d8:	db400e17 	ldw	r13,56(sp)
        ldw   r14, 60(sp)
 30400dc:	db800f17 	ldw	r14,60(sp)
        ldw   r15, 64(sp)
 30400e0:	dbc01017 	ldw	r15,64(sp)
        stw   et, %gprel(alt_stack_limit_value)(gp)
        stw   zero, %gprel(alt_exception_old_stack_limit)(gp)
#endif /* ALT_STACK_CHECK */
        ldw   sp,  76(sp)
#else /* ALT_EXCEPTION_STACK disabled */
        addi  sp, sp, 76
 30400e4:	dec01304 	addi	sp,sp,76

        /*
         * Return to the interrupted instruction.
         */

        eret
 30400e8:	ef80083a 	eret

030400ec <alt_irq_handler>:
 * instruction is present if the macro ALT_CI_INTERRUPT_VECTOR defined.
 */

void alt_irq_handler (void) __attribute__ ((section (".exceptions")));
void alt_irq_handler (void)
{
 30400ec:	defff904 	addi	sp,sp,-28
 30400f0:	dfc00615 	stw	ra,24(sp)
 30400f4:	df000515 	stw	fp,20(sp)
 30400f8:	df000504 	addi	fp,sp,20
  
  /*
   * Notify the operating system that we are at interrupt level.
   */ 
  
  ALT_OS_INT_ENTER();
 30400fc:	305adcc0 	call	305adcc <OSIntEnter>
#ifndef NIOS2_EIC_PRESENT
static ALT_INLINE alt_u32 ALT_ALWAYS_INLINE alt_irq_pending (void)
{
  alt_u32 active;

  NIOS2_READ_IPENDING (active);
 3040100:	0005313a 	rdctl	r2,ipending
 3040104:	e0bffe15 	stw	r2,-8(fp)

  return active;
 3040108:	e0bffe17 	ldw	r2,-8(fp)
   * Consider the case where the high priority interupt is asserted during
   * the interrupt entry sequence for a lower priority interrupt to see why
   * this is the case.
   */

  active = alt_irq_pending ();
 304010c:	e0bffb15 	stw	r2,-20(fp)

  do
  {
    i = 0;
 3040110:	e03ffd15 	stw	zero,-12(fp)
    mask = 1;
 3040114:	00800044 	movi	r2,1
 3040118:	e0bffc15 	stw	r2,-16(fp)
     * called to clear the interrupt condition.
     */

    do
    {
      if (active & mask)
 304011c:	e0fffb17 	ldw	r3,-20(fp)
 3040120:	e0bffc17 	ldw	r2,-16(fp)
 3040124:	1884703a 	and	r2,r3,r2
 3040128:	10001426 	beq	r2,zero,304017c <alt_irq_handler+0x90>
      { 
#ifdef ALT_ENHANCED_INTERRUPT_API_PRESENT
        alt_irq[i].handler(alt_irq[i].context); 
 304012c:	0080c1f4 	movhi	r2,775
 3040130:	109ae304 	addi	r2,r2,27532
 3040134:	e0fffd17 	ldw	r3,-12(fp)
 3040138:	180690fa 	slli	r3,r3,3
 304013c:	10c5883a 	add	r2,r2,r3
 3040140:	10c00017 	ldw	r3,0(r2)
 3040144:	0080c1f4 	movhi	r2,775
 3040148:	109ae304 	addi	r2,r2,27532
 304014c:	e13ffd17 	ldw	r4,-12(fp)
 3040150:	200890fa 	slli	r4,r4,3
 3040154:	21000104 	addi	r4,r4,4
 3040158:	1105883a 	add	r2,r2,r4
 304015c:	10800017 	ldw	r2,0(r2)
 3040160:	1009883a 	mov	r4,r2
 3040164:	183ee83a 	callr	r3
#else
        alt_irq[i].handler(alt_irq[i].context, i); 
#endif
        break;
 3040168:	0001883a 	nop
#ifndef NIOS2_EIC_PRESENT
static ALT_INLINE alt_u32 ALT_ALWAYS_INLINE alt_irq_pending (void)
{
  alt_u32 active;

  NIOS2_READ_IPENDING (active);
 304016c:	0005313a 	rdctl	r2,ipending
 3040170:	e0bfff15 	stw	r2,-4(fp)

  return active;
 3040174:	e0bfff17 	ldw	r2,-4(fp)
 3040178:	00000706 	br	3040198 <alt_irq_handler+0xac>
      }
      mask <<= 1;
 304017c:	e0bffc17 	ldw	r2,-16(fp)
 3040180:	1085883a 	add	r2,r2,r2
 3040184:	e0bffc15 	stw	r2,-16(fp)
      i++;
 3040188:	e0bffd17 	ldw	r2,-12(fp)
 304018c:	10800044 	addi	r2,r2,1
 3040190:	e0bffd15 	stw	r2,-12(fp)

    } while (1);
 3040194:	003fe106 	br	304011c <__alt_data_end+0xfffc011c>

    active = alt_irq_pending ();
 3040198:	e0bffb15 	stw	r2,-20(fp)
    
  } while (active);
 304019c:	e0bffb17 	ldw	r2,-20(fp)
 30401a0:	103fdb1e 	bne	r2,zero,3040110 <__alt_data_end+0xfffc0110>

  /*
   * Notify the operating system that interrupt processing is complete.
   */ 

  ALT_OS_INT_EXIT();
 30401a4:	305ae480 	call	305ae48 <OSIntExit>
}
 30401a8:	e037883a 	mov	sp,fp
 30401ac:	dfc00117 	ldw	ra,4(sp)
 30401b0:	df000017 	ldw	fp,0(sp)
 30401b4:	dec00204 	addi	sp,sp,8
 30401b8:	f800283a 	ret

Disassembly of section .text:

030401bc <_start>:

    /* Assume the data cache size is always a power of two. */
#if NIOS2_DCACHE_SIZE > 0x8000
    movhi r2, %hi(NIOS2_DCACHE_SIZE)
#else
    movui r2, NIOS2_DCACHE_SIZE
 30401bc:	00820014 	movui	r2,2048
#endif

0:
    initd 0(r2)
 30401c0:	10000033 	initd	0(r2)
#ifdef NIOS2_ECC_PRESENT
    addi r2, r2, -4
#else
    addi r2, r2, -NIOS2_DCACHE_LINE_SIZE
 30401c4:	10bff804 	addi	r2,r2,-32
#endif
    bgt r2, zero, 0b
 30401c8:	00bffd16 	blt	zero,r2,30401c0 <__alt_data_end+0xfffc01c0>

    /*
     * Now that the caches are initialized, set up the stack pointer and global pointer.
     * The values provided by the linker are assumed to be correctly aligned.
     */
    movhi sp, %hi(__alt_stack_pointer)
 30401cc:	06c0c234 	movhi	sp,776
    ori sp, sp, %lo(__alt_stack_pointer)
 30401d0:	dec00014 	ori	sp,sp,0
    movhi gp, %hi(_gp)
 30401d4:	0680c1f4 	movhi	gp,775
    ori gp, gp, %lo(_gp)
 30401d8:	d68d2014 	ori	gp,gp,13440
 */
#ifndef ALT_SIM_OPTIMIZE
    /* Log that the BSS is about to be cleared. */
    ALT_LOG_PUTS(alt_log_msg_bss)

    movhi r2, %hi(__bss_start)
 30401dc:	0080c1b4 	movhi	r2,774
    ori r2, r2, %lo(__bss_start)
 30401e0:	10b4ee14 	ori	r2,r2,54200

    movhi r3, %hi(__bss_end)
 30401e4:	00c0c1f4 	movhi	r3,775
    ori r3, r3, %lo(__bss_end)
 30401e8:	18db2314 	ori	r3,r3,27788

    beq r2, r3, 1f
 30401ec:	10c00326 	beq	r2,r3,30401fc <_start+0x40>

0:
    stw zero, (r2)
 30401f0:	10000015 	stw	zero,0(r2)
    addi r2, r2, 4
 30401f4:	10800104 	addi	r2,r2,4
    bltu r2, r3, 0b
 30401f8:	10fffd36 	bltu	r2,r3,30401f0 <__alt_data_end+0xfffc01f0>
     * section aren't defined until alt_load() has been called).
     */
    mov   et, zero
#endif

    call alt_load
 30401fc:	30596b00 	call	30596b0 <alt_load>

    /* Log that alt_main is about to be called. */
    ALT_LOG_PUTS(alt_log_msg_alt_main)

    /* Call the C entry point. It should never return. */
    call alt_main
 3040200:	30598540 	call	3059854 <alt_main>

03040204 <alt_after_alt_main>:

    /* Wait in infinite loop in case alt_main does return. */
alt_after_alt_main:
    br alt_after_alt_main
 3040204:	003fff06 	br	3040204 <__alt_data_end+0xfffc0204>

03040208 <update_status>:

/////////////////////////////////////////////////////////////////
/////////// Display config & function ///////////////////////////
/////////////////////////////////////////////////////////////////

void update_status(void){
 3040208:	deffec04 	addi	sp,sp,-80
 304020c:	dfc01315 	stw	ra,76(sp)
 3040210:	df001215 	stw	fp,72(sp)
 3040214:	df001204 	addi	fp,sp,72
#ifdef LCD_DISPLAY
    char szText[64];
    sprintf(szText, "\r%s\nVol:%d(%d-%d)\n", gWavePlay.szFilename, gWavePlay.nVolume,
 3040218:	0080c1f4 	movhi	r2,775
 304021c:	10b91904 	addi	r2,r2,-7068
 3040220:	10808d03 	ldbu	r2,564(r2)
 3040224:	10c03fcc 	andi	r3,r2,255
 3040228:	00800bc4 	movi	r2,47
 304022c:	d8800015 	stw	r2,0(sp)
 3040230:	00801fc4 	movi	r2,127
 3040234:	d8800115 	stw	r2,4(sp)
 3040238:	e13ff004 	addi	r4,fp,-64
 304023c:	0140c1f4 	movhi	r5,775
 3040240:	29614204 	addi	r5,r5,-31480
 3040244:	0180c1f4 	movhi	r6,775
 3040248:	31b99e04 	addi	r6,r6,-6536
 304024c:	180f883a 	mov	r7,r3
 3040250:	304bdc00 	call	304bdc0 <sprintf>
        HW_MIN_VOL, HW_MAX_VOL);
    lcd_display((szText));
 3040254:	e13ff004 	addi	r4,fp,-64
 3040258:	30402980 	call	3040298 <lcd_display>
#endif
}
 304025c:	e037883a 	mov	sp,fp
 3040260:	dfc00117 	ldw	ra,4(sp)
 3040264:	df000017 	ldw	fp,0(sp)
 3040268:	dec00204 	addi	sp,sp,8
 304026c:	f800283a 	ret

03040270 <lcd_open>:

void lcd_open(void){
 3040270:	defffe04 	addi	sp,sp,-8
 3040274:	dfc00115 	stw	ra,4(sp)
 3040278:	df000015 	stw	fp,0(sp)
 304027c:	d839883a 	mov	fp,sp
#ifdef LCD_DISPLAY
    LCD_Open();
 3040280:	304539c0 	call	304539c <LCD_Open>
#endif
}
 3040284:	e037883a 	mov	sp,fp
 3040288:	dfc00117 	ldw	ra,4(sp)
 304028c:	df000017 	ldw	fp,0(sp)
 3040290:	dec00204 	addi	sp,sp,8
 3040294:	f800283a 	ret

03040298 <lcd_display>:

void lcd_display(char *pText){
 3040298:	defffd04 	addi	sp,sp,-12
 304029c:	dfc00215 	stw	ra,8(sp)
 30402a0:	df000115 	stw	fp,4(sp)
 30402a4:	df000104 	addi	fp,sp,4
 30402a8:	e13fff15 	stw	r4,-4(fp)
#ifdef LCD_DISPLAY
    LCD_Clear();
 30402ac:	304544c0 	call	304544c <LCD_Clear>
    LCD_TextOut(pText);
 30402b0:	e13fff17 	ldw	r4,-4(fp)
 30402b4:	30453ec0 	call	30453ec <LCD_TextOut>
#endif
}
 30402b8:	e037883a 	mov	sp,fp
 30402bc:	dfc00117 	ldw	ra,4(sp)
 30402c0:	df000017 	ldw	fp,0(sp)
 30402c4:	dec00204 	addi	sp,sp,8
 30402c8:	f800283a 	ret

030402cc <wait_sdcard_insert>:

/////////////////////////////////////////////////////////////////
/////////// Routing for detect SD-CARD //////////////////////////
/////////////////////////////////////////////////////////////////

void wait_sdcard_insert(void){
 30402cc:	defffd04 	addi	sp,sp,-12
 30402d0:	dfc00215 	stw	ra,8(sp)
 30402d4:	df000115 	stw	fp,4(sp)
 30402d8:	df000104 	addi	fp,sp,4
    bool bFirstTime2Detect = TRUE;
 30402dc:	00800044 	movi	r2,1
 30402e0:	e0bfff15 	stw	r2,-4(fp)
    while(!SDLIB_Init()){
 30402e4:	00000c06 	br	3040318 <wait_sdcard_insert+0x4c>
        if (bFirstTime2Detect){
 30402e8:	e0bfff17 	ldw	r2,-4(fp)
 30402ec:	10000726 	beq	r2,zero,304030c <wait_sdcard_insert+0x40>
            printf("Please insert SD card!\r\n");
 30402f0:	0100c1f4 	movhi	r4,775
 30402f4:	21214704 	addi	r4,r4,-31460
 30402f8:	304bb100 	call	304bb10 <puts>
            lcd_display(("\rPlease insert\nSD card!\n"));
 30402fc:	0100c1f4 	movhi	r4,775
 3040300:	21214d04 	addi	r4,r4,-31436
 3040304:	30402980 	call	3040298 <lcd_display>
            bFirstTime2Detect = FALSE;
 3040308:	e03fff15 	stw	zero,-4(fp)
        }
        usleep(100*1000);
 304030c:	010000b4 	movhi	r4,2
 3040310:	2121a804 	addi	r4,r4,-31072
 3040314:	3059f940 	call	3059f94 <usleep>
/////////// Routing for detect SD-CARD //////////////////////////
/////////////////////////////////////////////////////////////////

void wait_sdcard_insert(void){
    bool bFirstTime2Detect = TRUE;
    while(!SDLIB_Init()){
 3040318:	304686c0 	call	304686c <SDLIB_Init>
 304031c:	103ff226 	beq	r2,zero,30402e8 <__alt_data_end+0xfffc02e8>
            lcd_display(("\rPlease insert\nSD card!\n"));
            bFirstTime2Detect = FALSE;
        }
        usleep(100*1000);
    } // while
    printf("Find SD card\r\n");
 3040320:	0100c1f4 	movhi	r4,775
 3040324:	21215404 	addi	r4,r4,-31408
 3040328:	304bb100 	call	304bb10 <puts>

}
 304032c:	e037883a 	mov	sp,fp
 3040330:	dfc00117 	ldw	ra,4(sp)
 3040334:	df000017 	ldw	fp,0(sp)
 3040338:	dec00204 	addi	sp,sp,8
 304033c:	f800283a 	ret

03040340 <is_supporrted_sample_rate>:

/////////////////////////////////////////////////////////////////
/////////// Routing for building wave-file play list ////////////
/////////////////////////////////////////////////////////////////

bool is_supporrted_sample_rate(int sample_rate){
 3040340:	defffd04 	addi	sp,sp,-12
 3040344:	df000215 	stw	fp,8(sp)
 3040348:	df000204 	addi	fp,sp,8
 304034c:	e13fff15 	stw	r4,-4(fp)
    bool bSupport = FALSE;
 3040350:	e03ffe15 	stw	zero,-8(fp)
    switch(sample_rate){
 3040354:	e0bfff17 	ldw	r2,-4(fp)
 3040358:	00eb1114 	movui	r3,44100
 304035c:	10c00c26 	beq	r2,r3,3040390 <is_supporrted_sample_rate+0x50>
 3040360:	00eb1114 	movui	r3,44100
 3040364:	18800516 	blt	r3,r2,304037c <is_supporrted_sample_rate+0x3c>
 3040368:	10c7d020 	cmpeqi	r3,r2,8000
 304036c:	1800081e 	bne	r3,zero,3040390 <is_supporrted_sample_rate+0x50>
 3040370:	109f4020 	cmpeqi	r2,r2,32000
 3040374:	1000061e 	bne	r2,zero,3040390 <is_supporrted_sample_rate+0x50>
 3040378:	00000806 	br	304039c <is_supporrted_sample_rate+0x5c>
 304037c:	00eee014 	movui	r3,48000
 3040380:	10c00326 	beq	r2,r3,3040390 <is_supporrted_sample_rate+0x50>
 3040384:	00c00074 	movhi	r3,1
 3040388:	18ddc004 	addi	r3,r3,30464
 304038c:	10c0031e 	bne	r2,r3,304039c <is_supporrted_sample_rate+0x5c>
        case 96000:
        case 48000:
        case 44100:
        case 32000:
        case 8000:
            bSupport = TRUE;
 3040390:	00800044 	movi	r2,1
 3040394:	e0bffe15 	stw	r2,-8(fp)
            break;
 3040398:	0001883a 	nop
    }
    return bSupport;
 304039c:	e0bffe17 	ldw	r2,-8(fp)
}
 30403a0:	e037883a 	mov	sp,fp
 30403a4:	df000017 	ldw	fp,0(sp)
 30403a8:	dec00104 	addi	sp,sp,4
 30403ac:	f800283a 	ret

030403b0 <build_wave_play_list>:


int build_wave_play_list(FAT_HANDLE hFat){
 30403b0:	deff4904 	addi	sp,sp,-732
 30403b4:	dfc0b615 	stw	ra,728(sp)
 30403b8:	df00b515 	stw	fp,724(sp)
 30403bc:	df00b504 	addi	fp,sp,724
 30403c0:	e13fff15 	stw	r4,-4(fp)
    int count = 0;
 30403c4:	e03f4b15 	stw	zero,-724(fp)
    FILE_CONTEXT FileContext;
    FAT_FILE_HANDLE hFile;
    alt_u8 szHeader[128];
    char szWaveFilename[MAX_FILENAME_LENGTH];
    int sample_rate;
    bool bFlag = FALSE;
 30403c8:	e03f4c15 	stw	zero,-720(fp)
    int nPos = 0;
 30403cc:	e03f4d15 	stw	zero,-716(fp)
    int length=0;
 30403d0:	e03f5015 	stw	zero,-704(fp)
    //
    gWavePlayList.nFileNum = 0;
 30403d4:	0080c1f4 	movhi	r2,775
 30403d8:	10b51804 	addi	r2,r2,-11168
 30403dc:	10000015 	stw	zero,0(r2)
    if (!Fat_FileBrowseBegin(hFat,&hFileBrowse)){
 30403e0:	e0bf5304 	addi	r2,fp,-692
 30403e4:	e13fff17 	ldw	r4,-4(fp)
 30403e8:	100b883a 	mov	r5,r2
 30403ec:	30415040 	call	3041504 <Fat_FileBrowseBegin>
 30403f0:	1000051e 	bne	r2,zero,3040408 <build_wave_play_list+0x58>
        printf("browse file fail.\n");
 30403f4:	0100c1f4 	movhi	r4,775
 30403f8:	21215804 	addi	r4,r4,-31392
 30403fc:	304bb100 	call	304bb10 <puts>
        return 0;
 3040400:	0005883a 	mov	r2,zero
 3040404:	0000e006 	br	3040788 <build_wave_play_list+0x3d8>
    }

    //
    while (Fat_FileBrowseNext(&hFileBrowse,&FileContext)){
 3040408:	0000d406 	br	304075c <build_wave_play_list+0x3ac>
        if (FileContext.bLongFilename){
 304040c:	e0bf9517 	ldw	r2,-428(fp)
 3040410:	10003c26 	beq	r2,zero,3040504 <build_wave_play_list+0x154>
                nPos = 0;
 3040414:	e03f4d15 	stw	zero,-716(fp)
                alt_u16 *pData16;
                alt_u8 *pData8;
                pData16 = (alt_u16 *)FileContext.szName;
 3040418:	e0bf5504 	addi	r2,fp,-684
 304041c:	e0bf4e15 	stw	r2,-712(fp)
                pData8 = FileContext.szName;
 3040420:	e0bf5504 	addi	r2,fp,-684
 3040424:	e0bf4f15 	stw	r2,-708(fp)
                while(*pData16){
 3040428:	00002d06 	br	30404e0 <build_wave_play_list+0x130>
                    if (*pData8 && *pData8 != ' ')
 304042c:	e0bf4f17 	ldw	r2,-708(fp)
 3040430:	10800003 	ldbu	r2,0(r2)
 3040434:	10803fcc 	andi	r2,r2,255
 3040438:	10000e26 	beq	r2,zero,3040474 <build_wave_play_list+0xc4>
 304043c:	e0bf4f17 	ldw	r2,-708(fp)
 3040440:	10800003 	ldbu	r2,0(r2)
 3040444:	10803fcc 	andi	r2,r2,255
 3040448:	10800820 	cmpeqi	r2,r2,32
 304044c:	1000091e 	bne	r2,zero,3040474 <build_wave_play_list+0xc4>
                        szWaveFilename[nPos++] = *pData8;
 3040450:	e0bf4d17 	ldw	r2,-716(fp)
 3040454:	10c00044 	addi	r3,r2,1
 3040458:	e0ff4d15 	stw	r3,-716(fp)
 304045c:	e0ff4f17 	ldw	r3,-708(fp)
 3040460:	18c00003 	ldbu	r3,0(r3)
 3040464:	1809883a 	mov	r4,r3
 3040468:	e0ffbf04 	addi	r3,fp,-260
 304046c:	1885883a 	add	r2,r3,r2
 3040470:	11000005 	stb	r4,0(r2)
                    pData8++;
 3040474:	e0bf4f17 	ldw	r2,-708(fp)
 3040478:	10800044 	addi	r2,r2,1
 304047c:	e0bf4f15 	stw	r2,-708(fp)
                    if (*pData8 && *pData8 != ' ')
 3040480:	e0bf4f17 	ldw	r2,-708(fp)
 3040484:	10800003 	ldbu	r2,0(r2)
 3040488:	10803fcc 	andi	r2,r2,255
 304048c:	10000e26 	beq	r2,zero,30404c8 <build_wave_play_list+0x118>
 3040490:	e0bf4f17 	ldw	r2,-708(fp)
 3040494:	10800003 	ldbu	r2,0(r2)
 3040498:	10803fcc 	andi	r2,r2,255
 304049c:	10800820 	cmpeqi	r2,r2,32
 30404a0:	1000091e 	bne	r2,zero,30404c8 <build_wave_play_list+0x118>
                        szWaveFilename[nPos++] = *pData8;
 30404a4:	e0bf4d17 	ldw	r2,-716(fp)
 30404a8:	10c00044 	addi	r3,r2,1
 30404ac:	e0ff4d15 	stw	r3,-716(fp)
 30404b0:	e0ff4f17 	ldw	r3,-708(fp)
 30404b4:	18c00003 	ldbu	r3,0(r3)
 30404b8:	1809883a 	mov	r4,r3
 30404bc:	e0ffbf04 	addi	r3,fp,-260
 30404c0:	1885883a 	add	r2,r3,r2
 30404c4:	11000005 	stb	r4,0(r2)
                    pData8++;
 30404c8:	e0bf4f17 	ldw	r2,-708(fp)
 30404cc:	10800044 	addi	r2,r2,1
 30404d0:	e0bf4f15 	stw	r2,-708(fp)
                    //
                    pData16++;
 30404d4:	e0bf4e17 	ldw	r2,-712(fp)
 30404d8:	10800084 	addi	r2,r2,2
 30404dc:	e0bf4e15 	stw	r2,-712(fp)
                nPos = 0;
                alt_u16 *pData16;
                alt_u8 *pData8;
                pData16 = (alt_u16 *)FileContext.szName;
                pData8 = FileContext.szName;
                while(*pData16){
 30404e0:	e0bf4e17 	ldw	r2,-712(fp)
 30404e4:	1080000b 	ldhu	r2,0(r2)
 30404e8:	10bfffcc 	andi	r2,r2,65535
 30404ec:	103fcf1e 	bne	r2,zero,304042c <__alt_data_end+0xfffc042c>
                        szWaveFilename[nPos++] = *pData8;
                    pData8++;
                    //
                    pData16++;
                }
                szWaveFilename[nPos] = 0;
 30404f0:	e0ffbf04 	addi	r3,fp,-260
 30404f4:	e0bf4d17 	ldw	r2,-716(fp)
 30404f8:	1885883a 	add	r2,r3,r2
 30404fc:	10000005 	stb	zero,0(r2)
 3040500:	00000506 	br	3040518 <build_wave_play_list+0x168>
                //printf("\n--Music Name:%s --\n",szWaveFilename);
            }else{
                strcpy(szWaveFilename,FileContext.szName);
 3040504:	e0ffbf04 	addi	r3,fp,-260
 3040508:	e0bf5504 	addi	r2,fp,-684
 304050c:	1809883a 	mov	r4,r3
 3040510:	100b883a 	mov	r5,r2
 3040514:	304c07c0 	call	304c07c <strcpy>
                //printf("\n--Music Name:%s --\n",FileContext.szName);
            }

            length= strlen(szWaveFilename);
 3040518:	e0bfbf04 	addi	r2,fp,-260
 304051c:	1009883a 	mov	r4,r2
 3040520:	304c10c0 	call	304c10c <strlen>
 3040524:	e0bf5015 	stw	r2,-704(fp)
            if(length >= 4){
 3040528:	e0bf5017 	ldw	r2,-704(fp)
 304052c:	10800110 	cmplti	r2,r2,4
 3040530:	1000481e 	bne	r2,zero,3040654 <build_wave_play_list+0x2a4>
               if((szWaveFilename[length-1] =='V' || szWaveFilename[length-1] =='v')
 3040534:	e0bf5017 	ldw	r2,-704(fp)
 3040538:	10bfffc4 	addi	r2,r2,-1
 304053c:	e0ffbf04 	addi	r3,fp,-260
 3040540:	1885883a 	add	r2,r3,r2
 3040544:	10800003 	ldbu	r2,0(r2)
 3040548:	10803fcc 	andi	r2,r2,255
 304054c:	1080201c 	xori	r2,r2,128
 3040550:	10bfe004 	addi	r2,r2,-128
 3040554:	108015a0 	cmpeqi	r2,r2,86
 3040558:	10000a1e 	bne	r2,zero,3040584 <build_wave_play_list+0x1d4>
 304055c:	e0bf5017 	ldw	r2,-704(fp)
 3040560:	10bfffc4 	addi	r2,r2,-1
 3040564:	e0ffbf04 	addi	r3,fp,-260
 3040568:	1885883a 	add	r2,r3,r2
 304056c:	10800003 	ldbu	r2,0(r2)
 3040570:	10803fcc 	andi	r2,r2,255
 3040574:	1080201c 	xori	r2,r2,128
 3040578:	10bfe004 	addi	r2,r2,-128
 304057c:	10801d98 	cmpnei	r2,r2,118
 3040580:	1000341e 	bne	r2,zero,3040654 <build_wave_play_list+0x2a4>
                &&(szWaveFilename[length-2] == 'A' || szWaveFilename[length-2] =='a')
 3040584:	e0bf5017 	ldw	r2,-704(fp)
 3040588:	10bfff84 	addi	r2,r2,-2
 304058c:	e0ffbf04 	addi	r3,fp,-260
 3040590:	1885883a 	add	r2,r3,r2
 3040594:	10800003 	ldbu	r2,0(r2)
 3040598:	10803fcc 	andi	r2,r2,255
 304059c:	1080201c 	xori	r2,r2,128
 30405a0:	10bfe004 	addi	r2,r2,-128
 30405a4:	10801060 	cmpeqi	r2,r2,65
 30405a8:	10000a1e 	bne	r2,zero,30405d4 <build_wave_play_list+0x224>
 30405ac:	e0bf5017 	ldw	r2,-704(fp)
 30405b0:	10bfff84 	addi	r2,r2,-2
 30405b4:	e0ffbf04 	addi	r3,fp,-260
 30405b8:	1885883a 	add	r2,r3,r2
 30405bc:	10800003 	ldbu	r2,0(r2)
 30405c0:	10803fcc 	andi	r2,r2,255
 30405c4:	1080201c 	xori	r2,r2,128
 30405c8:	10bfe004 	addi	r2,r2,-128
 30405cc:	10801858 	cmpnei	r2,r2,97
 30405d0:	1000201e 	bne	r2,zero,3040654 <build_wave_play_list+0x2a4>
                &&(szWaveFilename[length-3] == 'W' || szWaveFilename[length-3] == 'w')
 30405d4:	e0bf5017 	ldw	r2,-704(fp)
 30405d8:	10bfff44 	addi	r2,r2,-3
 30405dc:	e0ffbf04 	addi	r3,fp,-260
 30405e0:	1885883a 	add	r2,r3,r2
 30405e4:	10800003 	ldbu	r2,0(r2)
 30405e8:	10803fcc 	andi	r2,r2,255
 30405ec:	1080201c 	xori	r2,r2,128
 30405f0:	10bfe004 	addi	r2,r2,-128
 30405f4:	108015e0 	cmpeqi	r2,r2,87
 30405f8:	10000a1e 	bne	r2,zero,3040624 <build_wave_play_list+0x274>
 30405fc:	e0bf5017 	ldw	r2,-704(fp)
 3040600:	10bfff44 	addi	r2,r2,-3
 3040604:	e0ffbf04 	addi	r3,fp,-260
 3040608:	1885883a 	add	r2,r3,r2
 304060c:	10800003 	ldbu	r2,0(r2)
 3040610:	10803fcc 	andi	r2,r2,255
 3040614:	1080201c 	xori	r2,r2,128
 3040618:	10bfe004 	addi	r2,r2,-128
 304061c:	10801dd8 	cmpnei	r2,r2,119
 3040620:	10000c1e 	bne	r2,zero,3040654 <build_wave_play_list+0x2a4>
                &&(szWaveFilename[length-4] == '.')){
 3040624:	e0bf5017 	ldw	r2,-704(fp)
 3040628:	10bfff04 	addi	r2,r2,-4
 304062c:	e0ffbf04 	addi	r3,fp,-260
 3040630:	1885883a 	add	r2,r3,r2
 3040634:	10800003 	ldbu	r2,0(r2)
 3040638:	10803fcc 	andi	r2,r2,255
 304063c:	1080201c 	xori	r2,r2,128
 3040640:	10bfe004 	addi	r2,r2,-128
 3040644:	10800b98 	cmpnei	r2,r2,46
 3040648:	1000021e 	bne	r2,zero,3040654 <build_wave_play_list+0x2a4>
                   bFlag = TRUE;
 304064c:	00800044 	movi	r2,1
 3040650:	e0bf4c15 	stw	r2,-720(fp)
                }
            }

        if (bFlag){
 3040654:	e0bf4c17 	ldw	r2,-720(fp)
 3040658:	10004026 	beq	r2,zero,304075c <build_wave_play_list+0x3ac>
            // parsing wave format
            hFile = Fat_FileOpen(hFat,szWaveFilename);
 304065c:	e0bfbf04 	addi	r2,fp,-260
 3040660:	e13fff17 	ldw	r4,-4(fp)
 3040664:	100b883a 	mov	r5,r2
 3040668:	3041cfc0 	call	3041cfc <Fat_FileOpen>
 304066c:	e0bf5115 	stw	r2,-700(fp)
            if (!hFile){
 3040670:	e0bf5117 	ldw	r2,-700(fp)
 3040674:	1000041e 	bne	r2,zero,3040688 <build_wave_play_list+0x2d8>
                  printf("wave file open fail.\n");
 3040678:	0100c1f4 	movhi	r4,775
 304067c:	21215d04 	addi	r4,r4,-31372
 3040680:	304bb100 	call	304bb10 <puts>
                  continue;
 3040684:	00003506 	br	304075c <build_wave_play_list+0x3ac>
            }
            printf("Read OK.\n");
 3040688:	0100c1f4 	movhi	r4,775
 304068c:	21216304 	addi	r4,r4,-31348
 3040690:	304bb100 	call	304bb10 <puts>

            //memset(szHeader,0,sizeof(szHeader));

            if (!Fat_FileRead(hFile, szHeader, sizeof(szHeader))){
 3040694:	e0bf9f04 	addi	r2,fp,-388
 3040698:	e13f5117 	ldw	r4,-700(fp)
 304069c:	100b883a 	mov	r5,r2
 30406a0:	01802004 	movi	r6,128
 30406a4:	3041f600 	call	3041f60 <Fat_FileRead>
 30406a8:	1000041e 	bne	r2,zero,30406bc <build_wave_play_list+0x30c>
                  printf("wave file read fail.\n");
 30406ac:	0100c1f4 	movhi	r4,775
 30406b0:	21216604 	addi	r4,r4,-31336
 30406b4:	304bb100 	call	304bb10 <puts>
                  continue;
 30406b8:	00002806 	br	304075c <build_wave_play_list+0x3ac>
            }
            Fat_FileClose(hFile);
 30406bc:	e13f5117 	ldw	r4,-700(fp)
 30406c0:	30424f80 	call	30424f8 <Fat_FileClose>

                        // check wave format
            sample_rate =  Wave_GetSampleRate(szHeader, sizeof(szHeader));
 30406c4:	e0bf9f04 	addi	r2,fp,-388
 30406c8:	1009883a 	mov	r4,r2
 30406cc:	01402004 	movi	r5,128
 30406d0:	3045ba40 	call	3045ba4 <Wave_GetSampleRate>
 30406d4:	e0bf5215 	stw	r2,-696(fp)
            if (WAVE_IsWaveFile(szHeader, sizeof(szHeader)) &&
 30406d8:	e0bf9f04 	addi	r2,fp,-388
 30406dc:	1009883a 	mov	r4,r2
 30406e0:	01402004 	movi	r5,128
 30406e4:	3045a580 	call	3045a58 <WAVE_IsWaveFile>
 30406e8:	10001c26 	beq	r2,zero,304075c <build_wave_play_list+0x3ac>
                is_supporrted_sample_rate(sample_rate) &&
 30406ec:	e13f5217 	ldw	r4,-696(fp)
 30406f0:	30403400 	call	3040340 <is_supporrted_sample_rate>
            }
            Fat_FileClose(hFile);

                        // check wave format
            sample_rate =  Wave_GetSampleRate(szHeader, sizeof(szHeader));
            if (WAVE_IsWaveFile(szHeader, sizeof(szHeader)) &&
 30406f4:	10001926 	beq	r2,zero,304075c <build_wave_play_list+0x3ac>
                is_supporrted_sample_rate(sample_rate) &&
                Wave_GetChannelNum(szHeader, sizeof(szHeader))==2 &&
 30406f8:	e0bf9f04 	addi	r2,fp,-388
 30406fc:	1009883a 	mov	r4,r2
 3040700:	01402004 	movi	r5,128
 3040704:	3045c380 	call	3045c38 <Wave_GetChannelNum>
            Fat_FileClose(hFile);

                        // check wave format
            sample_rate =  Wave_GetSampleRate(szHeader, sizeof(szHeader));
            if (WAVE_IsWaveFile(szHeader, sizeof(szHeader)) &&
                is_supporrted_sample_rate(sample_rate) &&
 3040708:	10800098 	cmpnei	r2,r2,2
 304070c:	1000131e 	bne	r2,zero,304075c <build_wave_play_list+0x3ac>
                Wave_GetChannelNum(szHeader, sizeof(szHeader))==2 &&
                Wave_GetSampleBitNum(szHeader, sizeof(szHeader))==16){
 3040710:	e0bf9f04 	addi	r2,fp,-388
 3040714:	1009883a 	mov	r4,r2
 3040718:	01402004 	movi	r5,128
 304071c:	3045cb80 	call	3045cb8 <Wave_GetSampleBitNum>

                        // check wave format
            sample_rate =  Wave_GetSampleRate(szHeader, sizeof(szHeader));
            if (WAVE_IsWaveFile(szHeader, sizeof(szHeader)) &&
                is_supporrted_sample_rate(sample_rate) &&
                Wave_GetChannelNum(szHeader, sizeof(szHeader))==2 &&
 3040720:	10800418 	cmpnei	r2,r2,16
 3040724:	10000d1e 	bne	r2,zero,304075c <build_wave_play_list+0x3ac>
                Wave_GetSampleBitNum(szHeader, sizeof(szHeader))==16){
                    strcpy(gWavePlayList.szFilename[count],szWaveFilename);
 3040728:	e0bf4b17 	ldw	r2,-724(fp)
 304072c:	1004917a 	slli	r2,r2,5
 3040730:	10c00104 	addi	r3,r2,4
 3040734:	0080c1f4 	movhi	r2,775
 3040738:	10b51804 	addi	r2,r2,-11168
 304073c:	1887883a 	add	r3,r3,r2
 3040740:	e0bfbf04 	addi	r2,fp,-260
 3040744:	1809883a 	mov	r4,r3
 3040748:	100b883a 	mov	r5,r2
 304074c:	304c07c0 	call	304c07c <strcpy>
                    count++;
 3040750:	e0bf4b17 	ldw	r2,-724(fp)
 3040754:	10800044 	addi	r2,r2,1
 3040758:	e0bf4b15 	stw	r2,-724(fp)
        printf("browse file fail.\n");
        return 0;
    }

    //
    while (Fat_FileBrowseNext(&hFileBrowse,&FileContext)){
 304075c:	e0ff5304 	addi	r3,fp,-692
 3040760:	e0bf5504 	addi	r2,fp,-684
 3040764:	1809883a 	mov	r4,r3
 3040768:	100b883a 	mov	r5,r2
 304076c:	30415700 	call	3041570 <Fat_FileBrowseNext>
 3040770:	103f261e 	bne	r2,zero,304040c <__alt_data_end+0xfffc040c>
                    strcpy(gWavePlayList.szFilename[count],szWaveFilename);
                    count++;
            }
        }
    } // while
    gWavePlayList.nFileNum = count;
 3040774:	0080c1f4 	movhi	r2,775
 3040778:	10b51804 	addi	r2,r2,-11168
 304077c:	e0ff4b17 	ldw	r3,-724(fp)
 3040780:	10c00015 	stw	r3,0(r2)

    //Fat_FileBrowseEnd(&hFileBrowse);

    return count;
 3040784:	e0bf4b17 	ldw	r2,-724(fp)
}
 3040788:	e037883a 	mov	sp,fp
 304078c:	dfc00117 	ldw	ra,4(sp)
 3040790:	df000017 	ldw	fp,0(sp)
 3040794:	dec00204 	addi	sp,sp,8
 3040798:	f800283a 	ret

0304079c <waveplay_start>:
//// Function for wave playing /////////////////////////////////
/////////////////////////////////////////////////////////////////

void waveplay_stop(void);

bool waveplay_start(char *pFilename){
 304079c:	defff904 	addi	sp,sp,-28
 30407a0:	dfc00615 	stw	ra,24(sp)
 30407a4:	df000515 	stw	fp,20(sp)
 30407a8:	dc000415 	stw	r16,16(sp)
 30407ac:	df000504 	addi	fp,sp,20
 30407b0:	e13ffe15 	stw	r4,-8(fp)
    bool bSuccess;
    int nSize;
    //waveplay_stop();

  //  strcpyn(gWavePlay.szFilename, pFilename, FILENAME_LEN-1);
    strcpy(gWavePlay.szFilename, pFilename);
 30407b4:	0100c1f4 	movhi	r4,775
 30407b8:	21399e04 	addi	r4,r4,-6536
 30407bc:	e17ffe17 	ldw	r5,-8(fp)
 30407c0:	304c07c0 	call	304c07c <strcpy>
    gWavePlay.hFile = Fat_FileOpen(hFat, pFilename);
 30407c4:	d0a7ce17 	ldw	r2,-24776(gp)
 30407c8:	1009883a 	mov	r4,r2
 30407cc:	e17ffe17 	ldw	r5,-8(fp)
 30407d0:	3041cfc0 	call	3041cfc <Fat_FileOpen>
 30407d4:	1007883a 	mov	r3,r2
 30407d8:	0080c1f4 	movhi	r2,775
 30407dc:	10b91904 	addi	r2,r2,-7068
 30407e0:	10c00015 	stw	r3,0(r2)
    if (!gWavePlay.hFile)
 30407e4:	0080c1f4 	movhi	r2,775
 30407e8:	10b91904 	addi	r2,r2,-7068
 30407ec:	10800017 	ldw	r2,0(r2)
 30407f0:	1000031e 	bne	r2,zero,3040800 <waveplay_start+0x64>
        printf("wave file open fail.\n");
 30407f4:	0100c1f4 	movhi	r4,775
 30407f8:	21215d04 	addi	r4,r4,-31372
 30407fc:	304bb100 	call	304bb10 <puts>

    //gWavePlay.szBuf = Fat_FileSize(gWavePlay.hFile);
    nSize = Fat_FileSize(gWavePlay.hFile);
 3040800:	0080c1f4 	movhi	r2,775
 3040804:	10b91904 	addi	r2,r2,-7068
 3040808:	10800017 	ldw	r2,0(r2)
 304080c:	1009883a 	mov	r4,r2
 3040810:	3041f1c0 	call	3041f1c <Fat_FileSize>
 3040814:	e0bffc15 	stw	r2,-16(fp)

    if (gWavePlay.hFile){
 3040818:	0080c1f4 	movhi	r2,775
 304081c:	10b91904 	addi	r2,r2,-7068
 3040820:	10800017 	ldw	r2,0(r2)
 3040824:	10000e26 	beq	r2,zero,3040860 <waveplay_start+0xc4>
        bSuccess = Fat_FileRead(gWavePlay.hFile, gWavePlay.szBuf, WAVE_BUF_SIZE);
 3040828:	0080c1f4 	movhi	r2,775
 304082c:	10b91904 	addi	r2,r2,-7068
 3040830:	10800017 	ldw	r2,0(r2)
 3040834:	1009883a 	mov	r4,r2
 3040838:	0140c1f4 	movhi	r5,775
 304083c:	29791a04 	addi	r5,r5,-7064
 3040840:	01808004 	movi	r6,512
 3040844:	3041f600 	call	3041f60 <Fat_FileRead>
 3040848:	e0bffb15 	stw	r2,-20(fp)
        if (!bSuccess)
 304084c:	e0bffb17 	ldw	r2,-20(fp)
 3040850:	1000031e 	bne	r2,zero,3040860 <waveplay_start+0xc4>
            printf("wave file read fail.\n");
 3040854:	0100c1f4 	movhi	r4,775
 3040858:	21216604 	addi	r4,r4,-31336
 304085c:	304bb100 	call	304bb10 <puts>
    }

                        // check wave format
    if (bSuccess){
 3040860:	e0bffb17 	ldw	r2,-20(fp)
 3040864:	10005e26 	beq	r2,zero,30409e0 <waveplay_start+0x244>
            int sample_rate =  Wave_GetSampleRate(gWavePlay.szBuf, WAVE_BUF_SIZE);
 3040868:	0100c1f4 	movhi	r4,775
 304086c:	21391a04 	addi	r4,r4,-7064
 3040870:	01408004 	movi	r5,512
 3040874:	3045ba40 	call	3045ba4 <Wave_GetSampleRate>
 3040878:	e0bffd15 	stw	r2,-12(fp)
            if (WAVE_IsWaveFile(gWavePlay.szBuf, WAVE_BUF_SIZE) &&
 304087c:	0100c1f4 	movhi	r4,775
 3040880:	21391a04 	addi	r4,r4,-7064
 3040884:	01408004 	movi	r5,512
 3040888:	3045a580 	call	3045a58 <WAVE_IsWaveFile>
 304088c:	10005326 	beq	r2,zero,30409dc <waveplay_start+0x240>
                is_supporrted_sample_rate(sample_rate) &&
 3040890:	e13ffd17 	ldw	r4,-12(fp)
 3040894:	30403400 	call	3040340 <is_supporrted_sample_rate>
    }

                        // check wave format
    if (bSuccess){
            int sample_rate =  Wave_GetSampleRate(gWavePlay.szBuf, WAVE_BUF_SIZE);
            if (WAVE_IsWaveFile(gWavePlay.szBuf, WAVE_BUF_SIZE) &&
 3040898:	10005026 	beq	r2,zero,30409dc <waveplay_start+0x240>
                is_supporrted_sample_rate(sample_rate) &&
                Wave_GetChannelNum(gWavePlay.szBuf, WAVE_BUF_SIZE)==2 &&
 304089c:	0100c1f4 	movhi	r4,775
 30408a0:	21391a04 	addi	r4,r4,-7064
 30408a4:	01408004 	movi	r5,512
 30408a8:	3045c380 	call	3045c38 <Wave_GetChannelNum>

                        // check wave format
    if (bSuccess){
            int sample_rate =  Wave_GetSampleRate(gWavePlay.szBuf, WAVE_BUF_SIZE);
            if (WAVE_IsWaveFile(gWavePlay.szBuf, WAVE_BUF_SIZE) &&
                is_supporrted_sample_rate(sample_rate) &&
 30408ac:	10800098 	cmpnei	r2,r2,2
 30408b0:	10004a1e 	bne	r2,zero,30409dc <waveplay_start+0x240>
                Wave_GetChannelNum(gWavePlay.szBuf, WAVE_BUF_SIZE)==2 &&
                Wave_GetSampleBitNum(gWavePlay.szBuf, WAVE_BUF_SIZE)==16){
 30408b4:	0100c1f4 	movhi	r4,775
 30408b8:	21391a04 	addi	r4,r4,-7064
 30408bc:	01408004 	movi	r5,512
 30408c0:	3045cb80 	call	3045cb8 <Wave_GetSampleBitNum>
                        // check wave format
    if (bSuccess){
            int sample_rate =  Wave_GetSampleRate(gWavePlay.szBuf, WAVE_BUF_SIZE);
            if (WAVE_IsWaveFile(gWavePlay.szBuf, WAVE_BUF_SIZE) &&
                is_supporrted_sample_rate(sample_rate) &&
                Wave_GetChannelNum(gWavePlay.szBuf, WAVE_BUF_SIZE)==2 &&
 30408c4:	10800418 	cmpnei	r2,r2,16
 30408c8:	1000441e 	bne	r2,zero,30409dc <waveplay_start+0x240>
                Wave_GetSampleBitNum(gWavePlay.szBuf, WAVE_BUF_SIZE)==16){

                gWavePlay.uWavePlayPos = Wave_GetWaveOffset(gWavePlay.szBuf, WAVE_BUF_SIZE);
 30408cc:	0100c1f4 	movhi	r4,775
 30408d0:	21391a04 	addi	r4,r4,-7064
 30408d4:	01408004 	movi	r5,512
 30408d8:	3045dcc0 	call	3045dcc <Wave_GetWaveOffset>
 30408dc:	1007883a 	mov	r3,r2
 30408e0:	0080c1f4 	movhi	r2,775
 30408e4:	10b91904 	addi	r2,r2,-7068
 30408e8:	10c08315 	stw	r3,524(r2)
                gWavePlay.uWaveMaxPlayPos = gWavePlay.uWavePlayPos + Wave_GetDataByteSize(gWavePlay.szBuf, WAVE_BUF_SIZE);
 30408ec:	0080c1f4 	movhi	r2,775
 30408f0:	10b91904 	addi	r2,r2,-7068
 30408f4:	14008317 	ldw	r16,524(r2)
 30408f8:	0100c1f4 	movhi	r4,775
 30408fc:	21391a04 	addi	r4,r4,-7064
 3040900:	01408004 	movi	r5,512
 3040904:	3045d380 	call	3045d38 <Wave_GetDataByteSize>
 3040908:	8087883a 	add	r3,r16,r2
 304090c:	0080c1f4 	movhi	r2,775
 3040910:	10b91904 	addi	r2,r2,-7068
 3040914:	10c08415 	stw	r3,528(r2)
                gWavePlay.uWaveReadPos = WAVE_BUF_SIZE;
 3040918:	0080c1f4 	movhi	r2,775
 304091c:	10b91904 	addi	r2,r2,-7068
 3040920:	00c08004 	movi	r3,512
 3040924:	10c08215 	stw	r3,520(r2)

                // setup sample rate
                AUDIO_InterfaceActive(FALSE);
 3040928:	0009883a 	mov	r4,zero
 304092c:	30440e00 	call	30440e0 <AUDIO_InterfaceActive>
                if (sample_rate == 96000)
 3040930:	e0fffd17 	ldw	r3,-12(fp)
 3040934:	00800074 	movhi	r2,1
 3040938:	109dc004 	addi	r2,r2,30464
 304093c:	1880031e 	bne	r3,r2,304094c <waveplay_start+0x1b0>
                    AUDIO_SetSampleRate(RATE_ADC96K_DAC96K);
 3040940:	01000144 	movi	r4,5
 3040944:	30446300 	call	3044630 <AUDIO_SetSampleRate>
 3040948:	00001c06 	br	30409bc <waveplay_start+0x220>
                else if (sample_rate == 48000)
 304094c:	e0fffd17 	ldw	r3,-12(fp)
 3040950:	00aee014 	movui	r2,48000
 3040954:	1880031e 	bne	r3,r2,3040964 <waveplay_start+0x1c8>
                    AUDIO_SetSampleRate(RATE_ADC48K_DAC48K);
 3040958:	0009883a 	mov	r4,zero
 304095c:	30446300 	call	3044630 <AUDIO_SetSampleRate>
 3040960:	00001606 	br	30409bc <waveplay_start+0x220>
                else if (sample_rate == 44100)
 3040964:	e0fffd17 	ldw	r3,-12(fp)
 3040968:	00ab1114 	movui	r2,44100
 304096c:	1880031e 	bne	r3,r2,304097c <waveplay_start+0x1e0>
                    AUDIO_SetSampleRate(RATE_ADC44K1_DAC44K1);
 3040970:	01000184 	movi	r4,6
 3040974:	30446300 	call	3044630 <AUDIO_SetSampleRate>
 3040978:	00001006 	br	30409bc <waveplay_start+0x220>
                else if (sample_rate == 32000)
 304097c:	e0bffd17 	ldw	r2,-12(fp)
 3040980:	109f4018 	cmpnei	r2,r2,32000
 3040984:	1000031e 	bne	r2,zero,3040994 <waveplay_start+0x1f8>
                    AUDIO_SetSampleRate(RATE_ADC32K_DAC32K);
 3040988:	01000104 	movi	r4,4
 304098c:	30446300 	call	3044630 <AUDIO_SetSampleRate>
 3040990:	00000a06 	br	30409bc <waveplay_start+0x220>
                else if (sample_rate == 8000)
 3040994:	e0bffd17 	ldw	r2,-12(fp)
 3040998:	1087d018 	cmpnei	r2,r2,8000
 304099c:	1000031e 	bne	r2,zero,30409ac <waveplay_start+0x210>
                    AUDIO_SetSampleRate(RATE_ADC8K_DAC8K);
 30409a0:	010000c4 	movi	r4,3
 30409a4:	30446300 	call	3044630 <AUDIO_SetSampleRate>
 30409a8:	00000406 	br	30409bc <waveplay_start+0x220>
                else
                    printf("unsupported sample rate=%d\n", sample_rate);
 30409ac:	0100c1f4 	movhi	r4,775
 30409b0:	21216c04 	addi	r4,r4,-31312
 30409b4:	e17ffd17 	ldw	r5,-12(fp)
 30409b8:	304ba0c0 	call	304ba0c <printf>
                AUDIO_FifoClear();
 30409bc:	3044c580 	call	3044c58 <AUDIO_FifoClear>
                AUDIO_InterfaceActive(TRUE);
 30409c0:	01000044 	movi	r4,1
 30409c4:	30440e00 	call	30440e0 <AUDIO_InterfaceActive>


                printf("sample rate=%d\n", sample_rate);
 30409c8:	0100c1f4 	movhi	r4,775
 30409cc:	21217304 	addi	r4,r4,-31284
 30409d0:	e17ffd17 	ldw	r5,-12(fp)
 30409d4:	304ba0c0 	call	304ba0c <printf>
 30409d8:	00000106 	br	30409e0 <waveplay_start+0x244>
            }else{
                bSuccess = FALSE;
 30409dc:	e03ffb15 	stw	zero,-20(fp)
            }
    }

    if (!bSuccess)
 30409e0:	e0bffb17 	ldw	r2,-20(fp)
 30409e4:	1000011e 	bne	r2,zero,30409ec <waveplay_start+0x250>
        waveplay_stop();
 30409e8:	3040c740 	call	3040c74 <waveplay_stop>

    return bSuccess;
 30409ec:	e0bffb17 	ldw	r2,-20(fp)
}
 30409f0:	e6ffff04 	addi	sp,fp,-4
 30409f4:	dfc00217 	ldw	ra,8(sp)
 30409f8:	df000117 	ldw	fp,4(sp)
 30409fc:	dc000017 	ldw	r16,0(sp)
 3040a00:	dec00304 	addi	sp,sp,12
 3040a04:	f800283a 	ret

03040a08 <waveplay_execute>:

bool waveplay_execute(bool *bEOF){
 3040a08:	defff604 	addi	sp,sp,-40
 3040a0c:	dfc00915 	stw	ra,36(sp)
 3040a10:	df000815 	stw	fp,32(sp)
 3040a14:	df000804 	addi	fp,sp,32
 3040a18:	e13fff15 	stw	r4,-4(fp)
    bool bSuccess = TRUE;
 3040a1c:	00800044 	movi	r2,1
 3040a20:	e0bff815 	stw	r2,-32(fp)
    bool bDataReady = FALSE;
 3040a24:	e03ff915 	stw	zero,-28(fp)


    // end of play data !
    if (gWavePlay.uWavePlayPos >= gWavePlay.uWaveMaxPlayPos){
 3040a28:	0080c1f4 	movhi	r2,775
 3040a2c:	10b91904 	addi	r2,r2,-7068
 3040a30:	10c08317 	ldw	r3,524(r2)
 3040a34:	0080c1f4 	movhi	r2,775
 3040a38:	10b91904 	addi	r2,r2,-7068
 3040a3c:	10808417 	ldw	r2,528(r2)
 3040a40:	18800536 	bltu	r3,r2,3040a58 <waveplay_execute+0x50>
        *bEOF = TRUE;
 3040a44:	e0bfff17 	ldw	r2,-4(fp)
 3040a48:	00c00044 	movi	r3,1
 3040a4c:	10c00015 	stw	r3,0(r2)
        return TRUE;
 3040a50:	00800044 	movi	r2,1
 3040a54:	00008206 	br	3040c60 <waveplay_execute+0x258>
    }

    //
    *bEOF = FALSE;
 3040a58:	e0bfff17 	ldw	r2,-4(fp)
 3040a5c:	10000015 	stw	zero,0(r2)
    while (!bDataReady && bSuccess){
 3040a60:	00003d06 	br	3040b58 <waveplay_execute+0x150>
        if (gWavePlay.uWavePlayPos < gWavePlay.uWaveReadPos){
 3040a64:	0080c1f4 	movhi	r2,775
 3040a68:	10b91904 	addi	r2,r2,-7068
 3040a6c:	10c08317 	ldw	r3,524(r2)
 3040a70:	0080c1f4 	movhi	r2,775
 3040a74:	10b91904 	addi	r2,r2,-7068
 3040a78:	10808217 	ldw	r2,520(r2)
 3040a7c:	1880032e 	bgeu	r3,r2,3040a8c <waveplay_execute+0x84>
            bDataReady = TRUE;
 3040a80:	00800044 	movi	r2,1
 3040a84:	e0bff915 	stw	r2,-28(fp)
 3040a88:	00003306 	br	3040b58 <waveplay_execute+0x150>
            //DEBUG_PRINTF("it is not neccessary to read data from sd-card\r\n");
        }else{
            int read_size = WAVE_BUF_SIZE;
 3040a8c:	00808004 	movi	r2,512
 3040a90:	e0bffa15 	stw	r2,-24(fp)
            if (read_size > (gWavePlay.uWaveMaxPlayPos - gWavePlay.uWavePlayPos))
 3040a94:	e0fffa17 	ldw	r3,-24(fp)
 3040a98:	0080c1f4 	movhi	r2,775
 3040a9c:	10b91904 	addi	r2,r2,-7068
 3040aa0:	11008417 	ldw	r4,528(r2)
 3040aa4:	0080c1f4 	movhi	r2,775
 3040aa8:	10b91904 	addi	r2,r2,-7068
 3040aac:	10808317 	ldw	r2,524(r2)
 3040ab0:	2085c83a 	sub	r2,r4,r2
 3040ab4:	10c0082e 	bgeu	r2,r3,3040ad8 <waveplay_execute+0xd0>
                read_size = gWavePlay.uWaveMaxPlayPos - gWavePlay.uWavePlayPos;
 3040ab8:	0080c1f4 	movhi	r2,775
 3040abc:	10b91904 	addi	r2,r2,-7068
 3040ac0:	10c08417 	ldw	r3,528(r2)
 3040ac4:	0080c1f4 	movhi	r2,775
 3040ac8:	10b91904 	addi	r2,r2,-7068
 3040acc:	10808317 	ldw	r2,524(r2)
 3040ad0:	1885c83a 	sub	r2,r3,r2
 3040ad4:	e0bffa15 	stw	r2,-24(fp)
            bSuccess = Fat_FileRead(gWavePlay.hFile, gWavePlay.szBuf, read_size);
 3040ad8:	0080c1f4 	movhi	r2,775
 3040adc:	10b91904 	addi	r2,r2,-7068
 3040ae0:	10800017 	ldw	r2,0(r2)
 3040ae4:	1009883a 	mov	r4,r2
 3040ae8:	0140c1f4 	movhi	r5,775
 3040aec:	29791a04 	addi	r5,r5,-7064
 3040af0:	e1bffa17 	ldw	r6,-24(fp)
 3040af4:	3041f600 	call	3041f60 <Fat_FileRead>
 3040af8:	e0bff815 	stw	r2,-32(fp)
            if (bSuccess)
 3040afc:	e0bff817 	ldw	r2,-32(fp)
 3040b00:	10000926 	beq	r2,zero,3040b28 <waveplay_execute+0x120>
                gWavePlay.uWaveReadPos += read_size;
 3040b04:	0080c1f4 	movhi	r2,775
 3040b08:	10b91904 	addi	r2,r2,-7068
 3040b0c:	10c08217 	ldw	r3,520(r2)
 3040b10:	e0bffa17 	ldw	r2,-24(fp)
 3040b14:	1887883a 	add	r3,r3,r2
 3040b18:	0080c1f4 	movhi	r2,775
 3040b1c:	10b91904 	addi	r2,r2,-7068
 3040b20:	10c08215 	stw	r3,520(r2)
 3040b24:	00000c06 	br	3040b58 <waveplay_execute+0x150>
            else
                printf("[APP]sdcard read fail, read_pos:%ld, read_size:%d, max_play_pos:%ld !\r\n", gWavePlay.uWaveReadPos, read_size, gWavePlay.uWaveMaxPlayPos);
 3040b28:	0080c1f4 	movhi	r2,775
 3040b2c:	10b91904 	addi	r2,r2,-7068
 3040b30:	10c08217 	ldw	r3,520(r2)
 3040b34:	0080c1f4 	movhi	r2,775
 3040b38:	10b91904 	addi	r2,r2,-7068
 3040b3c:	10808417 	ldw	r2,528(r2)
 3040b40:	0100c1f4 	movhi	r4,775
 3040b44:	21217704 	addi	r4,r4,-31268
 3040b48:	180b883a 	mov	r5,r3
 3040b4c:	e1bffa17 	ldw	r6,-24(fp)
 3040b50:	100f883a 	mov	r7,r2
 3040b54:	304ba0c0 	call	304ba0c <printf>
        return TRUE;
    }

    //
    *bEOF = FALSE;
    while (!bDataReady && bSuccess){
 3040b58:	e0bff917 	ldw	r2,-28(fp)
 3040b5c:	1000021e 	bne	r2,zero,3040b68 <waveplay_execute+0x160>
 3040b60:	e0bff817 	ldw	r2,-32(fp)
 3040b64:	103fbf1e 	bne	r2,zero,3040a64 <__alt_data_end+0xfffc0a64>
                printf("[APP]sdcard read fail, read_pos:%ld, read_size:%d, max_play_pos:%ld !\r\n", gWavePlay.uWaveReadPos, read_size, gWavePlay.uWaveMaxPlayPos);
        }
    } // while

    //
    if (bDataReady && bSuccess){
 3040b68:	e0bff917 	ldw	r2,-28(fp)
 3040b6c:	10003b26 	beq	r2,zero,3040c5c <waveplay_execute+0x254>
 3040b70:	e0bff817 	ldw	r2,-32(fp)
 3040b74:	10003926 	beq	r2,zero,3040c5c <waveplay_execute+0x254>
        int play_size;
        short *pSample = (short *)(gWavePlay.szBuf + gWavePlay.uWavePlayPos%WAVE_BUF_SIZE);
 3040b78:	0080c1f4 	movhi	r2,775
 3040b7c:	10b91904 	addi	r2,r2,-7068
 3040b80:	10808317 	ldw	r2,524(r2)
 3040b84:	10807fcc 	andi	r2,r2,511
 3040b88:	10c00104 	addi	r3,r2,4
 3040b8c:	0080c1f4 	movhi	r2,775
 3040b90:	10b91904 	addi	r2,r2,-7068
 3040b94:	1885883a 	add	r2,r3,r2
 3040b98:	e0bffb15 	stw	r2,-20(fp)
        int i = 0;
 3040b9c:	e03ffc15 	stw	zero,-16(fp)
        play_size = gWavePlay.uWaveReadPos - gWavePlay.uWavePlayPos;
 3040ba0:	0080c1f4 	movhi	r2,775
 3040ba4:	10b91904 	addi	r2,r2,-7068
 3040ba8:	10c08217 	ldw	r3,520(r2)
 3040bac:	0080c1f4 	movhi	r2,775
 3040bb0:	10b91904 	addi	r2,r2,-7068
 3040bb4:	10808317 	ldw	r2,524(r2)
 3040bb8:	1885c83a 	sub	r2,r3,r2
 3040bbc:	e0bffd15 	stw	r2,-12(fp)
        play_size = play_size/4*4;
 3040bc0:	e0bffd17 	ldw	r2,-12(fp)
 3040bc4:	1000010e 	bge	r2,zero,3040bcc <waveplay_execute+0x1c4>
 3040bc8:	108000c4 	addi	r2,r2,3
 3040bcc:	1005d0ba 	srai	r2,r2,2
 3040bd0:	1085883a 	add	r2,r2,r2
 3040bd4:	1085883a 	add	r2,r2,r2
 3040bd8:	e0bffd15 	stw	r2,-12(fp)
        while(i < play_size){
 3040bdc:	00001406 	br	3040c30 <waveplay_execute+0x228>
            if(AUDIO_DacFifoNotFull()){ // if audio ready (not full)
 3040be0:	3044b400 	call	3044b40 <AUDIO_DacFifoNotFull>
 3040be4:	10001226 	beq	r2,zero,3040c30 <waveplay_execute+0x228>
                short ch_right, ch_left;
                ch_left = *pSample++;
 3040be8:	e0bffb17 	ldw	r2,-20(fp)
 3040bec:	10c00084 	addi	r3,r2,2
 3040bf0:	e0fffb15 	stw	r3,-20(fp)
 3040bf4:	1080000b 	ldhu	r2,0(r2)
 3040bf8:	e0bffe0d 	sth	r2,-8(fp)
                ch_right = *pSample++;
 3040bfc:	e0bffb17 	ldw	r2,-20(fp)
 3040c00:	10c00084 	addi	r3,r2,2
 3040c04:	e0fffb15 	stw	r3,-20(fp)
 3040c08:	1080000b 	ldhu	r2,0(r2)
 3040c0c:	e0bffe8d 	sth	r2,-6(fp)

                AUDIO_DacFifoSetData(ch_left, ch_right); // play wave
 3040c10:	e0fffe0f 	ldh	r3,-8(fp)
 3040c14:	e0bffe8f 	ldh	r2,-6(fp)
 3040c18:	1809883a 	mov	r4,r3
 3040c1c:	100b883a 	mov	r5,r2
 3040c20:	3044b7c0 	call	3044b7c <AUDIO_DacFifoSetData>
                i+=4;
 3040c24:	e0bffc17 	ldw	r2,-16(fp)
 3040c28:	10800104 	addi	r2,r2,4
 3040c2c:	e0bffc15 	stw	r2,-16(fp)
        int play_size;
        short *pSample = (short *)(gWavePlay.szBuf + gWavePlay.uWavePlayPos%WAVE_BUF_SIZE);
        int i = 0;
        play_size = gWavePlay.uWaveReadPos - gWavePlay.uWavePlayPos;
        play_size = play_size/4*4;
        while(i < play_size){
 3040c30:	e0fffc17 	ldw	r3,-16(fp)
 3040c34:	e0bffd17 	ldw	r2,-12(fp)
 3040c38:	18bfe916 	blt	r3,r2,3040be0 <__alt_data_end+0xfffc0be0>

                AUDIO_DacFifoSetData(ch_left, ch_right); // play wave
                i+=4;
            }
        } // while
        gWavePlay.uWavePlayPos += play_size;
 3040c3c:	0080c1f4 	movhi	r2,775
 3040c40:	10b91904 	addi	r2,r2,-7068
 3040c44:	10c08317 	ldw	r3,524(r2)
 3040c48:	e0bffd17 	ldw	r2,-12(fp)
 3040c4c:	1887883a 	add	r3,r3,r2
 3040c50:	0080c1f4 	movhi	r2,775
 3040c54:	10b91904 	addi	r2,r2,-7068
 3040c58:	10c08315 	stw	r3,524(r2)

    } //

    return bSuccess;
 3040c5c:	e0bff817 	ldw	r2,-32(fp)
}
 3040c60:	e037883a 	mov	sp,fp
 3040c64:	dfc00117 	ldw	ra,4(sp)
 3040c68:	df000017 	ldw	fp,0(sp)
 3040c6c:	dec00204 	addi	sp,sp,8
 3040c70:	f800283a 	ret

03040c74 <waveplay_stop>:

void waveplay_stop(void){
 3040c74:	deffff04 	addi	sp,sp,-4
 3040c78:	df000015 	stw	fp,0(sp)
 3040c7c:	d839883a 	mov	fp,sp
    /*if (gWavePlay.hFile.IsOpened){
        Fat_FileClose(&gWavePlay.hFile);
    }*/
}
 3040c80:	e037883a 	mov	sp,fp
 3040c84:	df000017 	ldw	fp,0(sp)
 3040c88:	dec00104 	addi	sp,sp,4
 3040c8c:	f800283a 	ret

03040c90 <handle_key>:

/////////////////////////////////////////////////////////////////
/////////// Routing for button handle ///////////////////////////
/////////////////////////////////////////////////////////////////
// return true if next-song
void handle_key(){
 3040c90:	defff904 	addi	sp,sp,-28
 3040c94:	dfc00615 	stw	ra,24(sp)
 3040c98:	df000515 	stw	fp,20(sp)
 3040c9c:	df000504 	addi	fp,sp,20
    int nHwVol;


#ifdef SUPPORT_PLAY_MODE
    bool bRepeat;
    bRepeat = (IORD_ALTERA_AVALON_PIO_DATA(SW_BASE) & 0x01)?TRUE:FALSE;
 3040ca0:	00804034 	movhi	r2,256
 3040ca4:	10801c04 	addi	r2,r2,112
 3040ca8:	10800037 	ldwio	r2,0(r2)
 3040cac:	1080004c 	andi	r2,r2,1
 3040cb0:	1004c03a 	cmpne	r2,r2,zero
 3040cb4:	10803fcc 	andi	r2,r2,255
 3040cb8:	e0bffc15 	stw	r2,-16(fp)
    if (bRepeat ^ gWavePlay.bRepeatMode){
 3040cbc:	0080c1f4 	movhi	r2,775
 3040cc0:	10b91904 	addi	r2,r2,-7068
 3040cc4:	10c08e17 	ldw	r3,568(r2)
 3040cc8:	e0bffc17 	ldw	r2,-16(fp)
 3040ccc:	18800526 	beq	r3,r2,3040ce4 <handle_key+0x54>
        gWavePlay.bRepeatMode = bRepeat;
 3040cd0:	0080c1f4 	movhi	r2,775
 3040cd4:	10b91904 	addi	r2,r2,-7068
 3040cd8:	e0fffc17 	ldw	r3,-16(fp)
 3040cdc:	10c08e15 	stw	r3,568(r2)
        update_status();
 3040ce0:	30402080 	call	3040208 <update_status>
        return;
    }
    next_active_time = alt_nticks();
#endif

    button = IORD_ALTERA_AVALON_PIO_DATA(KEY_BASE);
 3040ce4:	00804034 	movhi	r2,256
 3040ce8:	10801804 	addi	r2,r2,96
 3040cec:	10800037 	ldwio	r2,0(r2)
 3040cf0:	e0bffd05 	stb	r2,-12(fp)
    button = IORD_ALTERA_AVALON_PIO_EDGE_CAP(KEY_BASE);
 3040cf4:	00804034 	movhi	r2,256
 3040cf8:	10801b04 	addi	r2,r2,108
 3040cfc:	10800037 	ldwio	r2,0(r2)
 3040d00:	e0bffd05 	stb	r2,-12(fp)
    IOWR_ALTERA_AVALON_PIO_EDGE_CAP(KEY_BASE, 0); // clear flag
 3040d04:	0007883a 	mov	r3,zero
 3040d08:	00804034 	movhi	r2,256
 3040d0c:	10801b04 	addi	r2,r2,108
 3040d10:	10c00035 	stwio	r3,0(r2)
    bVolUp = (button & 0x04)?TRUE:FALSE;
 3040d14:	e0bffd03 	ldbu	r2,-12(fp)
 3040d18:	1080010c 	andi	r2,r2,4
 3040d1c:	1004c03a 	cmpne	r2,r2,zero
 3040d20:	10803fcc 	andi	r2,r2,255
 3040d24:	e0bffe15 	stw	r2,-8(fp)
    bVolDown = (button & 0x02)?TRUE:FALSE;
 3040d28:	e0bffd03 	ldbu	r2,-12(fp)
 3040d2c:	1080008c 	andi	r2,r2,2
 3040d30:	1004c03a 	cmpne	r2,r2,zero
 3040d34:	10803fcc 	andi	r2,r2,255
 3040d38:	e0bfff15 	stw	r2,-4(fp)



    // adjust volument
    if (bVolUp || bVolDown || bFirsTime2SetupVol){
 3040d3c:	e0bffe17 	ldw	r2,-8(fp)
 3040d40:	1000041e 	bne	r2,zero,3040d54 <handle_key+0xc4>
 3040d44:	e0bfff17 	ldw	r2,-4(fp)
 3040d48:	1000021e 	bne	r2,zero,3040d54 <handle_key+0xc4>
 3040d4c:	d0a00017 	ldw	r2,-32768(gp)
 3040d50:	10003726 	beq	r2,zero,3040e30 <handle_key+0x1a0>
        nHwVol = gWavePlay.nVolume;
 3040d54:	0080c1f4 	movhi	r2,775
 3040d58:	10b91904 	addi	r2,r2,-7068
 3040d5c:	10808d03 	ldbu	r2,564(r2)
 3040d60:	10803fcc 	andi	r2,r2,255
 3040d64:	e0bffb15 	stw	r2,-20(fp)
        if (bFirsTime2SetupVol){
 3040d68:	d0a00017 	ldw	r2,-32768(gp)
 3040d6c:	10000826 	beq	r2,zero,3040d90 <handle_key+0x100>
            bFirsTime2SetupVol = FALSE;
 3040d70:	d0200015 	stw	zero,-32768(gp)
            printf("current volume %d(%d-%d)\r\n", nHwVol, HW_MIN_VOL, HW_MAX_VOL);
 3040d74:	0100c1f4 	movhi	r4,775
 3040d78:	21218904 	addi	r4,r4,-31196
 3040d7c:	e17ffb17 	ldw	r5,-20(fp)
 3040d80:	01800bc4 	movi	r6,47
 3040d84:	01c01fc4 	movi	r7,127
 3040d88:	304ba0c0 	call	304ba0c <printf>
 3040d8c:	00001b06 	br	3040dfc <handle_key+0x16c>
        }else if (bVolUp){
 3040d90:	e0bffe17 	ldw	r2,-8(fp)
 3040d94:	10000d26 	beq	r2,zero,3040dcc <handle_key+0x13c>
            if (nHwVol < HW_MAX_VOL)
 3040d98:	e0bffb17 	ldw	r2,-20(fp)
 3040d9c:	10801fc8 	cmpgei	r2,r2,127
 3040da0:	1000031e 	bne	r2,zero,3040db0 <handle_key+0x120>
                nHwVol++;
 3040da4:	e0bffb17 	ldw	r2,-20(fp)
 3040da8:	10800044 	addi	r2,r2,1
 3040dac:	e0bffb15 	stw	r2,-20(fp)
            printf("volume up %d(%d-%d)\r\n", nHwVol, HW_MIN_VOL, HW_MAX_VOL);
 3040db0:	0100c1f4 	movhi	r4,775
 3040db4:	21219004 	addi	r4,r4,-31168
 3040db8:	e17ffb17 	ldw	r5,-20(fp)
 3040dbc:	01800bc4 	movi	r6,47
 3040dc0:	01c01fc4 	movi	r7,127
 3040dc4:	304ba0c0 	call	304ba0c <printf>
 3040dc8:	00000c06 	br	3040dfc <handle_key+0x16c>
        }else{
            if (nHwVol > HW_MIN_VOL)
 3040dcc:	e0bffb17 	ldw	r2,-20(fp)
 3040dd0:	10800c10 	cmplti	r2,r2,48
 3040dd4:	1000031e 	bne	r2,zero,3040de4 <handle_key+0x154>
                nHwVol--;
 3040dd8:	e0bffb17 	ldw	r2,-20(fp)
 3040ddc:	10bfffc4 	addi	r2,r2,-1
 3040de0:	e0bffb15 	stw	r2,-20(fp)
            printf("volume down %d(%d-%d)\r\n", nHwVol, HW_MIN_VOL, HW_MAX_VOL);
 3040de4:	0100c1f4 	movhi	r4,775
 3040de8:	21219604 	addi	r4,r4,-31144
 3040dec:	e17ffb17 	ldw	r5,-20(fp)
 3040df0:	01800bc4 	movi	r6,47
 3040df4:	01c01fc4 	movi	r7,127
 3040df8:	304ba0c0 	call	304ba0c <printf>
        }
        AUDIO_SetLineOutVol(nHwVol, nHwVol);
 3040dfc:	e0bffb17 	ldw	r2,-20(fp)
 3040e00:	10ffffcc 	andi	r3,r2,65535
 3040e04:	e0bffb17 	ldw	r2,-20(fp)
 3040e08:	10bfffcc 	andi	r2,r2,65535
 3040e0c:	1809883a 	mov	r4,r3
 3040e10:	100b883a 	mov	r5,r2
 3040e14:	30448240 	call	3044824 <AUDIO_SetLineOutVol>
        gWavePlay.nVolume = nHwVol;
 3040e18:	e0bffb17 	ldw	r2,-20(fp)
 3040e1c:	1007883a 	mov	r3,r2
 3040e20:	0080c1f4 	movhi	r2,775
 3040e24:	10b91904 	addi	r2,r2,-7068
 3040e28:	10c08d05 	stb	r3,564(r2)
        update_status();
 3040e2c:	30402080 	call	3040208 <update_status>
    if (bNextSong || bVolUp || bVolDown){
        next_active_time +=  alt_ticks_per_second()/5;  // debounce
    }
#endif

}
 3040e30:	e037883a 	mov	sp,fp
 3040e34:	dfc00117 	ldw	ra,4(sp)
 3040e38:	df000017 	ldw	fp,0(sp)
 3040e3c:	dec00204 	addi	sp,sp,8
 3040e40:	f800283a 	ret

03040e44 <Fat_Test>:

bool Fat_Test(FAT_HANDLE hFat, char *pDumpFile){
 3040e44:	deff6704 	addi	sp,sp,-612
 3040e48:	dfc09815 	stw	ra,608(sp)
 3040e4c:	df009715 	stw	fp,604(sp)
 3040e50:	df009704 	addi	fp,sp,604
 3040e54:	e13ffe15 	stw	r4,-8(fp)
 3040e58:	e17fff15 	stw	r5,-4(fp)
    bool bSuccess;
    int nCount = 0;
 3040e5c:	e03f6a15 	stw	zero,-600(fp)
    FAT_BROWSE_HANDLE hBrowse;
    FILE_CONTEXT FileContext;

    bSuccess = Fat_FileBrowseBegin(hFat, &hBrowse);
 3040e60:	e0bf7204 	addi	r2,fp,-568
 3040e64:	e13ffe17 	ldw	r4,-8(fp)
 3040e68:	100b883a 	mov	r5,r2
 3040e6c:	30415040 	call	3041504 <Fat_FileBrowseBegin>
 3040e70:	e0bf6915 	stw	r2,-604(fp)
    if (bSuccess){
 3040e74:	e0bf6917 	ldw	r2,-604(fp)
 3040e78:	10003d26 	beq	r2,zero,3040f70 <Fat_Test+0x12c>
        while(Fat_FileBrowseNext(&hBrowse, &FileContext)){
 3040e7c:	00003606 	br	3040f58 <Fat_Test+0x114>
            if (FileContext.bLongFilename){
 3040e80:	e0bfb417 	ldw	r2,-304(fp)
 3040e84:	10002b26 	beq	r2,zero,3040f34 <Fat_Test+0xf0>
                alt_u16 *pData16;
                alt_u8 *pData8;
                pData16 = (alt_u16 *)FileContext.szName;
 3040e88:	e0bf7404 	addi	r2,fp,-560
 3040e8c:	e0bf6b15 	stw	r2,-596(fp)
                pData8 = FileContext.szName;
 3040e90:	e0bf7404 	addi	r2,fp,-560
 3040e94:	e0bf6c15 	stw	r2,-592(fp)
                printf("[%d]", nCount);
 3040e98:	0100c1f4 	movhi	r4,775
 3040e9c:	21219c04 	addi	r4,r4,-31120
 3040ea0:	e17f6a17 	ldw	r5,-600(fp)
 3040ea4:	304ba0c0 	call	304ba0c <printf>
                while(*pData16){
 3040ea8:	00001b06 	br	3040f18 <Fat_Test+0xd4>
                    if (*pData8)
 3040eac:	e0bf6c17 	ldw	r2,-592(fp)
 3040eb0:	10800003 	ldbu	r2,0(r2)
 3040eb4:	10803fcc 	andi	r2,r2,255
 3040eb8:	10000526 	beq	r2,zero,3040ed0 <Fat_Test+0x8c>
                        printf("%c", *pData8);
 3040ebc:	e0bf6c17 	ldw	r2,-592(fp)
 3040ec0:	10800003 	ldbu	r2,0(r2)
 3040ec4:	10803fcc 	andi	r2,r2,255
 3040ec8:	1009883a 	mov	r4,r2
 3040ecc:	304ba500 	call	304ba50 <putchar>
                    pData8++;
 3040ed0:	e0bf6c17 	ldw	r2,-592(fp)
 3040ed4:	10800044 	addi	r2,r2,1
 3040ed8:	e0bf6c15 	stw	r2,-592(fp)
                    if (*pData8)
 3040edc:	e0bf6c17 	ldw	r2,-592(fp)
 3040ee0:	10800003 	ldbu	r2,0(r2)
 3040ee4:	10803fcc 	andi	r2,r2,255
 3040ee8:	10000526 	beq	r2,zero,3040f00 <Fat_Test+0xbc>
                        printf("%c", *pData8);
 3040eec:	e0bf6c17 	ldw	r2,-592(fp)
 3040ef0:	10800003 	ldbu	r2,0(r2)
 3040ef4:	10803fcc 	andi	r2,r2,255
 3040ef8:	1009883a 	mov	r4,r2
 3040efc:	304ba500 	call	304ba50 <putchar>
                    pData8++;
 3040f00:	e0bf6c17 	ldw	r2,-592(fp)
 3040f04:	10800044 	addi	r2,r2,1
 3040f08:	e0bf6c15 	stw	r2,-592(fp)
                    //
                    pData16++;
 3040f0c:	e0bf6b17 	ldw	r2,-596(fp)
 3040f10:	10800084 	addi	r2,r2,2
 3040f14:	e0bf6b15 	stw	r2,-596(fp)
                alt_u16 *pData16;
                alt_u8 *pData8;
                pData16 = (alt_u16 *)FileContext.szName;
                pData8 = FileContext.szName;
                printf("[%d]", nCount);
                while(*pData16){
 3040f18:	e0bf6b17 	ldw	r2,-596(fp)
 3040f1c:	1080000b 	ldhu	r2,0(r2)
 3040f20:	10bfffcc 	andi	r2,r2,65535
 3040f24:	103fe11e 	bne	r2,zero,3040eac <__alt_data_end+0xfffc0eac>
                        printf("%c", *pData8);
                    pData8++;
                    //
                    pData16++;
                }
                printf("\n");
 3040f28:	01000284 	movi	r4,10
 3040f2c:	304ba500 	call	304ba50 <putchar>
 3040f30:	00000606 	br	3040f4c <Fat_Test+0x108>
            }else{
                printf("---[%d]%s\n", nCount, FileContext.szName);
 3040f34:	e0bf7404 	addi	r2,fp,-560
 3040f38:	0100c1f4 	movhi	r4,775
 3040f3c:	21219e04 	addi	r4,r4,-31112
 3040f40:	e17f6a17 	ldw	r5,-600(fp)
 3040f44:	100d883a 	mov	r6,r2
 3040f48:	304ba0c0 	call	304ba0c <printf>
            }
            nCount++;
 3040f4c:	e0bf6a17 	ldw	r2,-600(fp)
 3040f50:	10800044 	addi	r2,r2,1
 3040f54:	e0bf6a15 	stw	r2,-600(fp)
    FAT_BROWSE_HANDLE hBrowse;
    FILE_CONTEXT FileContext;

    bSuccess = Fat_FileBrowseBegin(hFat, &hBrowse);
    if (bSuccess){
        while(Fat_FileBrowseNext(&hBrowse, &FileContext)){
 3040f58:	e0ff7204 	addi	r3,fp,-568
 3040f5c:	e0bf7404 	addi	r2,fp,-560
 3040f60:	1809883a 	mov	r4,r3
 3040f64:	100b883a 	mov	r5,r2
 3040f68:	30415700 	call	3041570 <Fat_FileBrowseNext>
 3040f6c:	103fc41e 	bne	r2,zero,3040e80 <__alt_data_end+0xfffc0e80>
                printf("---[%d]%s\n", nCount, FileContext.szName);
            }
            nCount++;
        }
    }
    if (bSuccess && pDumpFile && strlen(pDumpFile)){
 3040f70:	e0bf6917 	ldw	r2,-604(fp)
 3040f74:	10005926 	beq	r2,zero,30410dc <Fat_Test+0x298>
 3040f78:	e0bfff17 	ldw	r2,-4(fp)
 3040f7c:	10005726 	beq	r2,zero,30410dc <Fat_Test+0x298>
 3040f80:	e0bfff17 	ldw	r2,-4(fp)
 3040f84:	10800003 	ldbu	r2,0(r2)
 3040f88:	10803fcc 	andi	r2,r2,255
 3040f8c:	1080201c 	xori	r2,r2,128
 3040f90:	10bfe004 	addi	r2,r2,-128
 3040f94:	10005126 	beq	r2,zero,30410dc <Fat_Test+0x298>
        FAT_FILE_HANDLE hFile;
        hFile =  Fat_FileOpen(hFat, pDumpFile);
 3040f98:	e13ffe17 	ldw	r4,-8(fp)
 3040f9c:	e17fff17 	ldw	r5,-4(fp)
 3040fa0:	3041cfc0 	call	3041cfc <Fat_FileOpen>
 3040fa4:	e0bf7015 	stw	r2,-576(fp)
        if (hFile){
 3040fa8:	e0bf7017 	ldw	r2,-576(fp)
 3040fac:	10004626 	beq	r2,zero,30410c8 <Fat_Test+0x284>
            char szRead[256];
            int nReadSize, nFileSize, nTotalReadSize=0;
 3040fb0:	e03f6e15 	stw	zero,-584(fp)
            nFileSize = Fat_FileSize(hFile);
 3040fb4:	e13f7017 	ldw	r4,-576(fp)
 3040fb8:	3041f1c0 	call	3041f1c <Fat_FileSize>
 3040fbc:	e0bf7115 	stw	r2,-572(fp)
            if (nReadSize > sizeof(szRead))
 3040fc0:	e0bf6d17 	ldw	r2,-588(fp)
 3040fc4:	10804070 	cmpltui	r2,r2,257
 3040fc8:	1000021e 	bne	r2,zero,3040fd4 <Fat_Test+0x190>
                nReadSize = sizeof(szRead);
 3040fcc:	00804004 	movi	r2,256
 3040fd0:	e0bf6d15 	stw	r2,-588(fp)
            printf("%s dump:\n", pDumpFile);
 3040fd4:	0100c1f4 	movhi	r4,775
 3040fd8:	2121a104 	addi	r4,r4,-31100
 3040fdc:	e17fff17 	ldw	r5,-4(fp)
 3040fe0:	304ba0c0 	call	304ba0c <printf>
            while(bSuccess && nTotalReadSize < nFileSize){
 3040fe4:	00002c06 	br	3041098 <Fat_Test+0x254>
                nReadSize = sizeof(szRead);
 3040fe8:	00804004 	movi	r2,256
 3040fec:	e0bf6d15 	stw	r2,-588(fp)
                if (nReadSize > (nFileSize - nTotalReadSize))
 3040ff0:	e0ff7117 	ldw	r3,-572(fp)
 3040ff4:	e0bf6e17 	ldw	r2,-584(fp)
 3040ff8:	1887c83a 	sub	r3,r3,r2
 3040ffc:	e0bf6d17 	ldw	r2,-588(fp)
 3041000:	1880040e 	bge	r3,r2,3041014 <Fat_Test+0x1d0>
                    nReadSize = (nFileSize - nTotalReadSize);
 3041004:	e0ff7117 	ldw	r3,-572(fp)
 3041008:	e0bf6e17 	ldw	r2,-584(fp)
 304100c:	1885c83a 	sub	r2,r3,r2
 3041010:	e0bf6d15 	stw	r2,-588(fp)
                //
                if (Fat_FileRead(hFile, szRead, nReadSize)){
 3041014:	e0bfbe04 	addi	r2,fp,-264
 3041018:	e13f7017 	ldw	r4,-576(fp)
 304101c:	100b883a 	mov	r5,r2
 3041020:	e1bf6d17 	ldw	r6,-588(fp)
 3041024:	3041f600 	call	3041f60 <Fat_FileRead>
 3041028:	10001626 	beq	r2,zero,3041084 <Fat_Test+0x240>
                    int i;
                    for(i=0;i<nReadSize;i++){
 304102c:	e03f6f15 	stw	zero,-580(fp)
 3041030:	00000c06 	br	3041064 <Fat_Test+0x220>
                        printf("%c", szRead[i]);
 3041034:	e0ffbe04 	addi	r3,fp,-264
 3041038:	e0bf6f17 	ldw	r2,-580(fp)
 304103c:	1885883a 	add	r2,r3,r2
 3041040:	10800003 	ldbu	r2,0(r2)
 3041044:	10803fcc 	andi	r2,r2,255
 3041048:	1080201c 	xori	r2,r2,128
 304104c:	10bfe004 	addi	r2,r2,-128
 3041050:	1009883a 	mov	r4,r2
 3041054:	304ba500 	call	304ba50 <putchar>
                if (nReadSize > (nFileSize - nTotalReadSize))
                    nReadSize = (nFileSize - nTotalReadSize);
                //
                if (Fat_FileRead(hFile, szRead, nReadSize)){
                    int i;
                    for(i=0;i<nReadSize;i++){
 3041058:	e0bf6f17 	ldw	r2,-580(fp)
 304105c:	10800044 	addi	r2,r2,1
 3041060:	e0bf6f15 	stw	r2,-580(fp)
 3041064:	e0ff6f17 	ldw	r3,-580(fp)
 3041068:	e0bf6d17 	ldw	r2,-588(fp)
 304106c:	18bff116 	blt	r3,r2,3041034 <__alt_data_end+0xfffc1034>
                        printf("%c", szRead[i]);
                    }
                    nTotalReadSize += nReadSize;
 3041070:	e0ff6e17 	ldw	r3,-584(fp)
 3041074:	e0bf6d17 	ldw	r2,-588(fp)
 3041078:	1885883a 	add	r2,r3,r2
 304107c:	e0bf6e15 	stw	r2,-584(fp)
 3041080:	00000506 	br	3041098 <Fat_Test+0x254>
                }else{
                    bSuccess = FALSE;
 3041084:	e03f6915 	stw	zero,-604(fp)
                    printf("\nFaied to read the file \"%s\"\n", pDumpFile);
 3041088:	0100c1f4 	movhi	r4,775
 304108c:	2121a404 	addi	r4,r4,-31088
 3041090:	e17fff17 	ldw	r5,-4(fp)
 3041094:	304ba0c0 	call	304ba0c <printf>
            int nReadSize, nFileSize, nTotalReadSize=0;
            nFileSize = Fat_FileSize(hFile);
            if (nReadSize > sizeof(szRead))
                nReadSize = sizeof(szRead);
            printf("%s dump:\n", pDumpFile);
            while(bSuccess && nTotalReadSize < nFileSize){
 3041098:	e0bf6917 	ldw	r2,-604(fp)
 304109c:	10000326 	beq	r2,zero,30410ac <Fat_Test+0x268>
 30410a0:	e0ff6e17 	ldw	r3,-584(fp)
 30410a4:	e0bf7117 	ldw	r2,-572(fp)
 30410a8:	18bfcf16 	blt	r3,r2,3040fe8 <__alt_data_end+0xfffc0fe8>
                }else{
                    bSuccess = FALSE;
                    printf("\nFaied to read the file \"%s\"\n", pDumpFile);
                }
            } // while
            if (bSuccess)
 30410ac:	e0bf6917 	ldw	r2,-604(fp)
 30410b0:	10000226 	beq	r2,zero,30410bc <Fat_Test+0x278>
                printf("\n");
 30410b4:	01000284 	movi	r4,10
 30410b8:	304ba500 	call	304ba50 <putchar>
            Fat_FileClose(hFile);
 30410bc:	e13f7017 	ldw	r4,-576(fp)
 30410c0:	30424f80 	call	30424f8 <Fat_FileClose>
 30410c4:	00000506 	br	30410dc <Fat_Test+0x298>
        }else{
            bSuccess = FALSE;
 30410c8:	e03f6915 	stw	zero,-604(fp)
            printf("Cannot find the file \"%s\"\n", pDumpFile);
 30410cc:	0100c1f4 	movhi	r4,775
 30410d0:	2121ac04 	addi	r4,r4,-31056
 30410d4:	e17fff17 	ldw	r5,-4(fp)
 30410d8:	304ba0c0 	call	304ba0c <printf>
        }
    }

    return bSuccess;
 30410dc:	e0bf6917 	ldw	r2,-604(fp)
}
 30410e0:	e037883a 	mov	sp,fp
 30410e4:	dfc00117 	ldw	ra,4(sp)
 30410e8:	df000017 	ldw	fp,0(sp)
 30410ec:	dec00204 	addi	sp,sp,8
 30410f0:	f800283a 	ret

030410f4 <main>:
void TaskReadSD(void* pdata);
void TaskPlayMusic(void* pdata);

/* The main function creates two task and starts multi-tasking */
int main(void)
{
 30410f4:	defffe04 	addi	sp,sp,-8
 30410f8:	dfc00115 	stw	ra,4(sp)
 30410fc:	df000015 	stw	fp,0(sp)
 3041100:	d839883a 	mov	fp,sp
	play_music = OSSemCreate(0);
 3041104:	0009883a 	mov	r4,zero
 3041108:	305f8d80 	call	305f8d8 <OSSemCreate>
 304110c:	d0a7d015 	stw	r2,-24768(gp)

	OSTaskCreate(TaskReadSD, NULL, (void *)&TaskReadSDStack[TASK_STACKSIZE-1], TaskReadSD_PRIORITY);
 3041110:	0100c134 	movhi	r4,772
 3041114:	21045904 	addi	r4,r4,4452
 3041118:	000b883a 	mov	r5,zero
 304111c:	0180c1f4 	movhi	r6,775
 3041120:	318e5904 	addi	r6,r6,14692
 3041124:	01c00104 	movi	r7,4
 3041128:	30608700 	call	3060870 <OSTaskCreate>
	OSTaskCreate(TaskPlayMusic, NULL, (void *)&TaskPlayMusicStack[TASK_STACKSIZE-1], TaskPlayMusic_PRIORITY);
 304112c:	0100c134 	movhi	r4,772
 3041130:	2104f404 	addi	r4,r4,5072
 3041134:	000b883a 	mov	r5,zero
 3041138:	0180c1f4 	movhi	r6,775
 304113c:	31865904 	addi	r6,r6,6500
 3041140:	01c00144 	movi	r7,5
 3041144:	30608700 	call	3060870 <OSTaskCreate>

	OSStart();
 3041148:	305b09c0 	call	305b09c <OSStart>
	return 0;
 304114c:	0005883a 	mov	r2,zero
}
 3041150:	e037883a 	mov	sp,fp
 3041154:	dfc00117 	ldw	ra,4(sp)
 3041158:	df000017 	ldw	fp,0(sp)
 304115c:	dec00204 	addi	sp,sp,8
 3041160:	f800283a 	ret

03041164 <TaskReadSD>:

/* Does something */
void TaskReadSD(void* pdata)
{
 3041164:	deffef04 	addi	sp,sp,-68
 3041168:	dfc01015 	stw	ra,64(sp)
 304116c:	df000f15 	stw	fp,60(sp)
 3041170:	df000f04 	addi	fp,sp,60
 3041174:	e13fff15 	stw	r4,-4(fp)
	INT8U err;
	while (1)
	{
		int nPlayIndex;
		bool bSdacrdReady = FALSE;
 3041178:	e03ff215 	stw	zero,-56(fp)
		alt_u8 szWaveFile[FILENAME_LEN];
		lcd_open();
 304117c:	30402700 	call	3040270 <lcd_open>
		if (!AUDIO_Init()){
 3041180:	3043f580 	call	3043f58 <AUDIO_Init>
 3041184:	1000061e 	bne	r2,zero,30411a0 <TaskReadSD+0x3c>
			printf("Audio Init fail!\n");
 3041188:	0100c1f4 	movhi	r4,775
 304118c:	2121b304 	addi	r4,r4,-31028
 3041190:	304bb100 	call	304bb10 <puts>
			lcd_display(("Audio Init fail!\n\n"));
 3041194:	0100c1f4 	movhi	r4,775
 3041198:	2121b804 	addi	r4,r4,-31008
 304119c:	30402980 	call	3040298 <lcd_display>
			//return 0;
		}

		memset(&gWavePlay, 0, sizeof(gWavePlay));
 30411a0:	0100c1f4 	movhi	r4,775
 30411a4:	213da904 	addi	r4,r4,-2396
 30411a8:	000b883a 	mov	r5,zero
 30411ac:	01808f04 	movi	r6,572
 30411b0:	304b8600 	call	304b860 <memset>
		gWavePlay.nVolume = HW_DEFAULT_VOL;
 30411b4:	0080c1f4 	movhi	r2,775
 30411b8:	10bda904 	addi	r2,r2,-2396
 30411bc:	00c01404 	movi	r3,80
 30411c0:	10c08d05 	stb	r3,564(r2)
		AUDIO_SetLineOutVol(gWavePlay.nVolume, gWavePlay.nVolume);
 30411c4:	0080c1f4 	movhi	r2,775
 30411c8:	10bda904 	addi	r2,r2,-2396
 30411cc:	10808d03 	ldbu	r2,564(r2)
 30411d0:	10c03fcc 	andi	r3,r2,255
 30411d4:	0080c1f4 	movhi	r2,775
 30411d8:	10bda904 	addi	r2,r2,-2396
 30411dc:	10808d03 	ldbu	r2,564(r2)
 30411e0:	10803fcc 	andi	r2,r2,255
 30411e4:	1809883a 	mov	r4,r3
 30411e8:	100b883a 	mov	r5,r2
 30411ec:	30448240 	call	3044824 <AUDIO_SetLineOutVol>

		while(1){

			// check SD card
			wait_sdcard_insert();
 30411f0:	30402cc0 	call	30402cc <wait_sdcard_insert>

			// Mount SD-CARD
			hFat = Fat_Mount(FAT_SD_CARD, 0);
 30411f4:	0009883a 	mov	r4,zero
 30411f8:	000b883a 	mov	r5,zero
 30411fc:	30414080 	call	3041408 <Fat_Mount>
 3041200:	d0a7cf15 	stw	r2,-24772(gp)
			if (!hFat){
 3041204:	d0a7cf17 	ldw	r2,-24772(gp)
 3041208:	1000071e 	bne	r2,zero,3041228 <TaskReadSD+0xc4>
				printf("SD card mount fail.\n");
 304120c:	0100c1f4 	movhi	r4,775
 3041210:	2121bd04 	addi	r4,r4,-30988
 3041214:	304bb100 	call	304bb10 <puts>
				lcd_display(("SD card mount fail.\n\n"));
 3041218:	0100c1f4 	movhi	r4,775
 304121c:	2121c204 	addi	r4,r4,-30968
 3041220:	30402980 	call	3040298 <lcd_display>
 3041224:	00000d06 	br	304125c <TaskReadSD+0xf8>
			}
			else{
			   if (build_wave_play_list(hFat) == 0){
 3041228:	d0a7cf17 	ldw	r2,-24772(gp)
 304122c:	1009883a 	mov	r4,r2
 3041230:	30403b00 	call	30403b0 <build_wave_play_list>
 3041234:	1000071e 	bne	r2,zero,3041254 <TaskReadSD+0xf0>
				printf("There is no wave file in the root directory of SD card.\n");
 3041238:	0100c1f4 	movhi	r4,775
 304123c:	2121c804 	addi	r4,r4,-30944
 3041240:	304bb100 	call	304bb10 <puts>
				lcd_display(("No Wave Files.\n\n"));
 3041244:	0100c1f4 	movhi	r4,775
 3041248:	2121d604 	addi	r4,r4,-30888
 304124c:	30402980 	call	3040298 <lcd_display>
 3041250:	00000206 	br	304125c <TaskReadSD+0xf8>
				//return 0;
				}else{
					bSdacrdReady = TRUE;
 3041254:	00800044 	movi	r2,1
 3041258:	e0bff215 	stw	r2,-56(fp)
				}
			}

			nPlayIndex = 0;
 304125c:	e03ff115 	stw	zero,-60(fp)
			while(bSdacrdReady){
 3041260:	00005806 	br	30413c4 <TaskReadSD+0x260>
				// find a wave file
				bool bPlayDone = FALSE;
 3041264:	e03ff315 	stw	zero,-52(fp)
				strcpy(szWaveFile, gWavePlayList.szFilename[nPlayIndex]);
 3041268:	e0bff117 	ldw	r2,-60(fp)
 304126c:	1004917a 	slli	r2,r2,5
 3041270:	10c00104 	addi	r3,r2,4
 3041274:	0080c1f4 	movhi	r2,775
 3041278:	10b9a804 	addi	r2,r2,-6496
 304127c:	1885883a 	add	r2,r3,r2
 3041280:	e0fff704 	addi	r3,fp,-36
 3041284:	1809883a 	mov	r4,r3
 3041288:	100b883a 	mov	r5,r2
 304128c:	304c07c0 	call	304c07c <strcpy>
				printf("Play Song:%s\r\n", szWaveFile);
 3041290:	e0bff704 	addi	r2,fp,-36
 3041294:	0100c1f4 	movhi	r4,775
 3041298:	2121db04 	addi	r4,r4,-30868
 304129c:	100b883a 	mov	r5,r2
 30412a0:	304ba0c0 	call	304ba0c <printf>
				if (!waveplay_start(szWaveFile)){
 30412a4:	e0bff704 	addi	r2,fp,-36
 30412a8:	1009883a 	mov	r4,r2
 30412ac:	304079c0 	call	304079c <waveplay_start>
 30412b0:	1000071e 	bne	r2,zero,30412d0 <TaskReadSD+0x16c>
					printf("waveplay_start error\r\n");
 30412b4:	0100c1f4 	movhi	r4,775
 30412b8:	2121df04 	addi	r4,r4,-30852
 30412bc:	304bb100 	call	304bb10 <puts>
					lcd_display("Play Error.\n\n");
 30412c0:	0100c1f4 	movhi	r4,775
 30412c4:	2121e504 	addi	r4,r4,-30828
 30412c8:	30402980 	call	3040298 <lcd_display>
					bSdacrdReady = FALSE;
 30412cc:	e03ff215 	stw	zero,-56(fp)
				}
				update_status();
 30412d0:	30402080 	call	3040208 <update_status>
				while(!bPlayDone && bSdacrdReady){
 30412d4:	00003606 	br	30413b0 <TaskReadSD+0x24c>
					bool bEndOfFile = FALSE;
 30412d8:	e03ff615 	stw	zero,-40(fp)
					// play wave file
					if (!waveplay_execute(&bEndOfFile)){
 30412dc:	e0bff604 	addi	r2,fp,-40
 30412e0:	1009883a 	mov	r4,r2
 30412e4:	3040a080 	call	3040a08 <waveplay_execute>
 30412e8:	1000071e 	bne	r2,zero,3041308 <TaskReadSD+0x1a4>
						printf("waveplay_execute error\r\n");
 30412ec:	0100c1f4 	movhi	r4,775
 30412f0:	2121e904 	addi	r4,r4,-30812
 30412f4:	304bb100 	call	304bb10 <puts>
						lcd_display("Play Error.\n\n");
 30412f8:	0100c1f4 	movhi	r4,775
 30412fc:	2121e504 	addi	r4,r4,-30828
 3041300:	30402980 	call	3040298 <lcd_display>
						bSdacrdReady = FALSE;
 3041304:	e03ff215 	stw	zero,-56(fp)
					}

					// handle key event
					handle_key();
 3041308:	3040c900 	call	3040c90 <handle_key>
					if (bSdacrdReady && (bEndOfFile)){
 304130c:	e0bff217 	ldw	r2,-56(fp)
 3041310:	10002726 	beq	r2,zero,30413b0 <TaskReadSD+0x24c>
 3041314:	e0bff617 	ldw	r2,-40(fp)
 3041318:	10002526 	beq	r2,zero,30413b0 <TaskReadSD+0x24c>
						bool bNextSong = FALSE;
 304131c:	e03ff415 	stw	zero,-48(fp)
						bool bLastSong = FALSE;
 3041320:	e03ff515 	stw	zero,-44(fp)

						if(bEndOfFile) bNextSong = TRUE;
 3041324:	e0bff617 	ldw	r2,-40(fp)
 3041328:	10000226 	beq	r2,zero,3041334 <TaskReadSD+0x1d0>
 304132c:	00800044 	movi	r2,1
 3041330:	e0bff415 	stw	r2,-48(fp)
						// check whether in REPEAT mode
						if (gWavePlay.bRepeatMode){
 3041334:	0080c1f4 	movhi	r2,775
 3041338:	10bda904 	addi	r2,r2,-2396
 304133c:	10808e17 	ldw	r2,568(r2)
 3041340:	10000226 	beq	r2,zero,304134c <TaskReadSD+0x1e8>
							bNextSong = FALSE;  // in repeat mode
 3041344:	e03ff415 	stw	zero,-48(fp)
							bLastSong = FALSE;
 3041348:	e03ff515 	stw	zero,-44(fp)
						}
						if (bNextSong){  // index update for next song
 304134c:	e0bff417 	ldw	r2,-48(fp)
 3041350:	10000926 	beq	r2,zero,3041378 <TaskReadSD+0x214>
							nPlayIndex++;
 3041354:	e0bff117 	ldw	r2,-60(fp)
 3041358:	10800044 	addi	r2,r2,1
 304135c:	e0bff115 	stw	r2,-60(fp)
							if (nPlayIndex >= gWavePlayList.nFileNum)
 3041360:	0080c1f4 	movhi	r2,775
 3041364:	10b9a804 	addi	r2,r2,-6496
 3041368:	10800017 	ldw	r2,0(r2)
 304136c:	e0fff117 	ldw	r3,-60(fp)
 3041370:	18800116 	blt	r3,r2,3041378 <TaskReadSD+0x214>
								nPlayIndex = 0;
 3041374:	e03ff115 	stw	zero,-60(fp)
						}
						if (bLastSong){  // index update for last song
 3041378:	e0bff517 	ldw	r2,-44(fp)
 304137c:	10000a26 	beq	r2,zero,30413a8 <TaskReadSD+0x244>
							nPlayIndex--;
 3041380:	e0bff117 	ldw	r2,-60(fp)
 3041384:	10bfffc4 	addi	r2,r2,-1
 3041388:	e0bff115 	stw	r2,-60(fp)
							if (nPlayIndex < 0)
 304138c:	e0bff117 	ldw	r2,-60(fp)
 3041390:	1000050e 	bge	r2,zero,30413a8 <TaskReadSD+0x244>
								nPlayIndex = gWavePlayList.nFileNum-1;
 3041394:	0080c1f4 	movhi	r2,775
 3041398:	10b9a804 	addi	r2,r2,-6496
 304139c:	10800017 	ldw	r2,0(r2)
 30413a0:	10bfffc4 	addi	r2,r2,-1
 30413a4:	e0bff115 	stw	r2,-60(fp)
						}
						bPlayDone = TRUE;
 30413a8:	00800044 	movi	r2,1
 30413ac:	e0bff315 	stw	r2,-52(fp)
					printf("waveplay_start error\r\n");
					lcd_display("Play Error.\n\n");
					bSdacrdReady = FALSE;
				}
				update_status();
				while(!bPlayDone && bSdacrdReady){
 30413b0:	e0bff317 	ldw	r2,-52(fp)
 30413b4:	1000021e 	bne	r2,zero,30413c0 <TaskReadSD+0x25c>
 30413b8:	e0bff217 	ldw	r2,-56(fp)
 30413bc:	103fc61e 	bne	r2,zero,30412d8 <__alt_data_end+0xfffc12d8>
								nPlayIndex = gWavePlayList.nFileNum-1;
						}
						bPlayDone = TRUE;
					}
				}  // while(!bPlayNextSong && bSdacrdReady)
				waveplay_stop();
 30413c0:	3040c740 	call	3040c74 <waveplay_stop>
					bSdacrdReady = TRUE;
				}
			}

			nPlayIndex = 0;
			while(bSdacrdReady){
 30413c4:	e0bff217 	ldw	r2,-56(fp)
 30413c8:	103fa61e 	bne	r2,zero,3041264 <__alt_data_end+0xfffc1264>
						bPlayDone = TRUE;
					}
				}  // while(!bPlayNextSong && bSdacrdReady)
				waveplay_stop();
			}  // while(bSdacrdReady)
		}
 30413cc:	003f8806 	br	30411f0 <__alt_data_end+0xfffc11f0>

030413d0 <TaskPlayMusic>:

}

/* Does something */
void TaskPlayMusic(void* pdata)
{
 30413d0:	defffd04 	addi	sp,sp,-12
 30413d4:	dfc00215 	stw	ra,8(sp)
 30413d8:	df000115 	stw	fp,4(sp)
 30413dc:	df000104 	addi	fp,sp,4
 30413e0:	e13fff15 	stw	r4,-4(fp)
	INT8U err;
	while (1)
	{
		//OSSemPend(play_music,0,&err);

		printf("Hello from TaskPlayMusic\n");
 30413e4:	0100c1f4 	movhi	r4,775
 30413e8:	2121ef04 	addi	r4,r4,-30788
 30413ec:	304bb100 	call	304bb10 <puts>
		OSTimeDlyHMSM(0, 0, 3, 0);
 30413f0:	0009883a 	mov	r4,zero
 30413f4:	000b883a 	mov	r5,zero
 30413f8:	018000c4 	movi	r6,3
 30413fc:	000f883a 	mov	r7,zero
 3041400:	3061d6c0 	call	3061d6c <OSTimeDlyHMSM>
	}
 3041404:	003ff706 	br	30413e4 <__alt_data_end+0xfffc13e4>

03041408 <Fat_Mount>:
bool fatSameLongFilename(alt_u16 *p1, alt_u16 *p2);




FAT_HANDLE Fat_Mount(FAT_DEVICE FatDevice, DEVICE_HANDLE hUsbDisk){
 3041408:	defffb04 	addi	sp,sp,-20
 304140c:	dfc00415 	stw	ra,16(sp)
 3041410:	df000315 	stw	fp,12(sp)
 3041414:	df000304 	addi	fp,sp,12
 3041418:	e13ffe15 	stw	r4,-8(fp)
 304141c:	e17fff15 	stw	r5,-4(fp)
    
    //Fat_Unmount();
    FAT_HANDLE hFat = 0;
 3041420:	e03ffd15 	stw	zero,-12(fp)
    
    if (FatDevice == FAT_SD_CARD){
 3041424:	e0bffe17 	ldw	r2,-8(fp)
 3041428:	1000021e 	bne	r2,zero,3041434 <Fat_Mount+0x2c>
        #ifdef SUPPORT_SD_CARD
        hFat = fatMountSdcard();
 304142c:	3043e1c0 	call	3043e1c <fatMountSdcard>
 3041430:	e0bffd15 	stw	r2,-12(fp)
    }else if (FatDevice == FAT_USB_DISK){
        #ifdef SUPPORT_USB_DISK
        hFat = fatMountUsbDisk(hUsbDisk);
        #endif
    }  
    return hFat;      
 3041434:	e0bffd17 	ldw	r2,-12(fp)
        
}
 3041438:	e037883a 	mov	sp,fp
 304143c:	dfc00117 	ldw	ra,4(sp)
 3041440:	df000017 	ldw	fp,0(sp)
 3041444:	dec00204 	addi	sp,sp,8
 3041448:	f800283a 	ret

0304144c <Fat_Unmount>:

void Fat_Unmount(FAT_HANDLE Fat){
 304144c:	defffc04 	addi	sp,sp,-16
 3041450:	dfc00315 	stw	ra,12(sp)
 3041454:	df000215 	stw	fp,8(sp)
 3041458:	df000204 	addi	fp,sp,8
 304145c:	e13fff15 	stw	r4,-4(fp)
    VOLUME_INFO *pVol = (VOLUME_INFO *)Fat;
 3041460:	e0bfff17 	ldw	r2,-4(fp)
 3041464:	e0bffe15 	stw	r2,-8(fp)
    if (!pVol)
 3041468:	e0bffe17 	ldw	r2,-8(fp)
 304146c:	1000011e 	bne	r2,zero,3041474 <Fat_Unmount+0x28>
        return;
 3041470:	00000406 	br	3041484 <Fat_Unmount+0x38>
    if (pVol->szFatTable){
        free(pVol->szFatTable);
        pVol->szFatTable = 0;
    }        
#endif //#ifdef FAT_READONLY
    pVol->bMount = FALSE;
 3041474:	e0bffe17 	ldw	r2,-8(fp)
 3041478:	10000415 	stw	zero,16(r2)
    
    free(pVol);  
 304147c:	e13ffe17 	ldw	r4,-8(fp)
 3041480:	304af6c0 	call	304af6c <free>
}   
 3041484:	e037883a 	mov	sp,fp
 3041488:	dfc00117 	ldw	ra,4(sp)
 304148c:	df000017 	ldw	fp,0(sp)
 3041490:	dec00204 	addi	sp,sp,8
 3041494:	f800283a 	ret

03041498 <Fat_Type>:

FAT_TYPE Fat_Type(FAT_HANDLE Fat){
 3041498:	defffc04 	addi	sp,sp,-16
 304149c:	df000315 	stw	fp,12(sp)
 30414a0:	df000304 	addi	fp,sp,12
 30414a4:	e13fff15 	stw	r4,-4(fp)
    VOLUME_INFO *pVol = (VOLUME_INFO *)Fat;
 30414a8:	e0bfff17 	ldw	r2,-4(fp)
 30414ac:	e0bffe15 	stw	r2,-8(fp)
    FAT_TYPE Type = FAT_UNKNOWN;
 30414b0:	e03ffd15 	stw	zero,-12(fp)
    if (pVol){
 30414b4:	e0bffe17 	ldw	r2,-8(fp)
 30414b8:	10000d26 	beq	r2,zero,30414f0 <Fat_Type+0x58>
        if (pVol->Partition_Type == PARTITION_FAT16)
 30414bc:	e0bffe17 	ldw	r2,-8(fp)
 30414c0:	10800317 	ldw	r2,12(r2)
 30414c4:	10800198 	cmpnei	r2,r2,6
 30414c8:	1000031e 	bne	r2,zero,30414d8 <Fat_Type+0x40>
            Type = FAT_FAT16;
 30414cc:	00800044 	movi	r2,1
 30414d0:	e0bffd15 	stw	r2,-12(fp)
 30414d4:	00000606 	br	30414f0 <Fat_Type+0x58>
        else if (pVol->Partition_Type == PARTITION_FAT32)
 30414d8:	e0bffe17 	ldw	r2,-8(fp)
 30414dc:	10800317 	ldw	r2,12(r2)
 30414e0:	108002d8 	cmpnei	r2,r2,11
 30414e4:	1000021e 	bne	r2,zero,30414f0 <Fat_Type+0x58>
            Type = FAT_FAT32;
 30414e8:	00800084 	movi	r2,2
 30414ec:	e0bffd15 	stw	r2,-12(fp)
    }
    return Type;        
 30414f0:	e0bffd17 	ldw	r2,-12(fp)
}
 30414f4:	e037883a 	mov	sp,fp
 30414f8:	df000017 	ldw	fp,0(sp)
 30414fc:	dec00104 	addi	sp,sp,4
 3041500:	f800283a 	ret

03041504 <Fat_FileBrowseBegin>:

bool Fat_FileBrowseBegin(FAT_HANDLE hFat, FAT_BROWSE_HANDLE *pFatBrowseHandle){
 3041504:	defffc04 	addi	sp,sp,-16
 3041508:	df000315 	stw	fp,12(sp)
 304150c:	df000304 	addi	fp,sp,12
 3041510:	e13ffe15 	stw	r4,-8(fp)
 3041514:	e17fff15 	stw	r5,-4(fp)
    VOLUME_INFO *pVol = (VOLUME_INFO *)hFat;
 3041518:	e0bffe17 	ldw	r2,-8(fp)
 304151c:	e0bffd15 	stw	r2,-12(fp)
    if (!pVol)
 3041520:	e0bffd17 	ldw	r2,-12(fp)
 3041524:	1000021e 	bne	r2,zero,3041530 <Fat_FileBrowseBegin+0x2c>
        return FALSE;
 3041528:	0005883a 	mov	r2,zero
 304152c:	00000c06 	br	3041560 <Fat_FileBrowseBegin+0x5c>
    if (!pVol->bMount)
 3041530:	e0bffd17 	ldw	r2,-12(fp)
 3041534:	10800417 	ldw	r2,16(r2)
 3041538:	1000021e 	bne	r2,zero,3041544 <Fat_FileBrowseBegin+0x40>
        return FALSE;
 304153c:	0005883a 	mov	r2,zero
 3041540:	00000706 	br	3041560 <Fat_FileBrowseBegin+0x5c>
    pFatBrowseHandle->DirectoryIndex = -1;
 3041544:	e0bfff17 	ldw	r2,-4(fp)
 3041548:	00ffffc4 	movi	r3,-1
 304154c:	10c00015 	stw	r3,0(r2)
    pFatBrowseHandle->hFat = hFat;
 3041550:	e0bfff17 	ldw	r2,-4(fp)
 3041554:	e0fffe17 	ldw	r3,-8(fp)
 3041558:	10c00115 	stw	r3,4(r2)
    return TRUE;
 304155c:	00800044 	movi	r2,1
}
 3041560:	e037883a 	mov	sp,fp
 3041564:	df000017 	ldw	fp,0(sp)
 3041568:	dec00104 	addi	sp,sp,4
 304156c:	f800283a 	ret

03041570 <Fat_FileBrowseNext>:

bool Fat_FileBrowseNext(FAT_BROWSE_HANDLE *pFatBrowseHandle, FILE_CONTEXT *pFileContext){
 3041570:	defff404 	addi	sp,sp,-48
 3041574:	dfc00b15 	stw	ra,44(sp)
 3041578:	df000a15 	stw	fp,40(sp)
 304157c:	df000a04 	addi	fp,sp,40
 3041580:	e13ffe15 	stw	r4,-8(fp)
 3041584:	e17fff15 	stw	r5,-4(fp)
    bool bFind = FALSE, bError=FALSE, bLongFilename = FALSE;
 3041588:	e03ff615 	stw	zero,-40(fp)
 304158c:	e03ff715 	stw	zero,-36(fp)
 3041590:	e03ff815 	stw	zero,-32(fp)
    int OrderValue = 0;
 3041594:	e03ff915 	stw	zero,-28(fp)
    FAT_DIRECTORY *pDir;
    //unsigned int nSecter, nSecterOffset,nByteOffset;
    VOLUME_INFO *pVol = (VOLUME_INFO *)pFatBrowseHandle->hFat;
 3041598:	e0bffe17 	ldw	r2,-8(fp)
 304159c:	10800117 	ldw	r2,4(r2)
 30415a0:	e0bffa15 	stw	r2,-24(fp)
    
    if (!pVol)
 30415a4:	e0bffa17 	ldw	r2,-24(fp)
 30415a8:	1000021e 	bne	r2,zero,30415b4 <Fat_FileBrowseNext+0x44>
        return FALSE;    
 30415ac:	0005883a 	mov	r2,zero
 30415b0:	0000f506 	br	3041988 <Fat_FileBrowseNext+0x418>
    
    if (!pVol->bMount)
 30415b4:	e0bffa17 	ldw	r2,-24(fp)
 30415b8:	10800417 	ldw	r2,16(r2)
 30415bc:	1000021e 	bne	r2,zero,30415c8 <Fat_FileBrowseNext+0x58>
        return FALSE;
 30415c0:	0005883a 	mov	r2,zero
 30415c4:	0000f006 	br	3041988 <Fat_FileBrowseNext+0x418>
    
    
    do{  // search Directory Table
        pFatBrowseHandle->DirectoryIndex++;        
 30415c8:	e0bffe17 	ldw	r2,-8(fp)
 30415cc:	10800017 	ldw	r2,0(r2)
 30415d0:	10c00044 	addi	r3,r2,1
 30415d4:	e0bffe17 	ldw	r2,-8(fp)
 30415d8:	10c00015 	stw	r3,0(r2)
        pDir = fatFindDirectory(pVol,pFatBrowseHandle->DirectoryIndex);
 30415dc:	e0bffe17 	ldw	r2,-8(fp)
 30415e0:	10800017 	ldw	r2,0(r2)
 30415e4:	e13ffa17 	ldw	r4,-24(fp)
 30415e8:	100b883a 	mov	r5,r2
 30415ec:	30438140 	call	3043814 <fatFindDirectory>
 30415f0:	e0bffb15 	stw	r2,-20(fp)
        if (!pDir)
 30415f4:	e0bffb17 	ldw	r2,-20(fp)
 30415f8:	1000021e 	bne	r2,zero,3041604 <Fat_FileBrowseNext+0x94>
            bError = TRUE;
 30415fc:	00800044 	movi	r2,1
 3041600:	e0bff715 	stw	r2,-36(fp)
            
        if (!bError){                        
 3041604:	e0bff717 	ldw	r2,-36(fp)
 3041608:	1000d71e 	bne	r2,zero,3041968 <Fat_FileBrowseNext+0x3f8>
            if (fatIsValidDir(pDir) && !fatIsUnusedDir(pDir)){
 304160c:	e13ffb17 	ldw	r4,-20(fp)
 3041610:	3042ee80 	call	3042ee8 <fatIsValidDir>
 3041614:	1000d426 	beq	r2,zero,3041968 <Fat_FileBrowseNext+0x3f8>
 3041618:	e13ffb17 	ldw	r4,-20(fp)
 304161c:	3042f900 	call	3042f90 <fatIsUnusedDir>
 3041620:	1000d11e 	bne	r2,zero,3041968 <Fat_FileBrowseNext+0x3f8>
                if ((pDir->Attribute & ATTR_LONG_NAME) == ATTR_LONG_NAME){
 3041624:	e0bffb17 	ldw	r2,-20(fp)
 3041628:	108002c3 	ldbu	r2,11(r2)
 304162c:	10803fcc 	andi	r2,r2,255
 3041630:	108003cc 	andi	r2,r2,15
 3041634:	108003d8 	cmpnei	r2,r2,15
 3041638:	1000521e 	bne	r2,zero,3041784 <Fat_FileBrowseNext+0x214>
                    FAT_LONG_DIRECTORY *pLDIR = (FAT_LONG_DIRECTORY *)pDir;
 304163c:	e0bffb17 	ldw	r2,-20(fp)
 3041640:	e0bffc15 	stw	r2,-16(fp)
                    // check attribute
                    if ((pLDIR->LDIR_Attr & ATTR_LONG_NAME) != ATTR_LONG_NAME){
 3041644:	e0bffc17 	ldw	r2,-16(fp)
 3041648:	108002c3 	ldbu	r2,11(r2)
 304164c:	10803fcc 	andi	r2,r2,255
 3041650:	108003cc 	andi	r2,r2,15
 3041654:	108003e0 	cmpeqi	r2,r2,15
 3041658:	1000031e 	bne	r2,zero,3041668 <Fat_FileBrowseNext+0xf8>
                        bError = TRUE;
 304165c:	00800044 	movi	r2,1
 3041660:	e0bff715 	stw	r2,-36(fp)
 3041664:	00001e06 	br	30416e0 <Fat_FileBrowseNext+0x170>
                    }else{                        
                        // check order
                        if (OrderValue == 0){
 3041668:	e0bff917 	ldw	r2,-28(fp)
 304166c:	1000141e 	bne	r2,zero,30416c0 <Fat_FileBrowseNext+0x150>
                            // last entry
                            if (bLongFilename || ((OrderValue & LAST_LONG_ENTRY) != OrderValue))
 3041670:	e0bff817 	ldw	r2,-32(fp)
 3041674:	1000041e 	bne	r2,zero,3041688 <Fat_FileBrowseNext+0x118>
 3041678:	e0bff917 	ldw	r2,-28(fp)
 304167c:	10c0100c 	andi	r3,r2,64
 3041680:	e0bff917 	ldw	r2,-28(fp)
 3041684:	18800326 	beq	r3,r2,3041694 <Fat_FileBrowseNext+0x124>
                                bError = TRUE;
 3041688:	00800044 	movi	r2,1
 304168c:	e0bff715 	stw	r2,-36(fp)
 3041690:	00000506 	br	30416a8 <Fat_FileBrowseNext+0x138>
                            else
                                OrderValue = pLDIR->LDIR_Ord & 0x3F;
 3041694:	e0bffc17 	ldw	r2,-16(fp)
 3041698:	10800003 	ldbu	r2,0(r2)
 304169c:	10803fcc 	andi	r2,r2,255
 30416a0:	10800fcc 	andi	r2,r2,63
 30416a4:	e0bff915 	stw	r2,-28(fp)
                            memset(pFileContext->szName, 0, sizeof(pFileContext->szName));        
 30416a8:	e0bfff17 	ldw	r2,-4(fp)
 30416ac:	1009883a 	mov	r4,r2
 30416b0:	000b883a 	mov	r5,zero
 30416b4:	01804004 	movi	r6,256
 30416b8:	304b8600 	call	304b860 <memset>
 30416bc:	00000806 	br	30416e0 <Fat_FileBrowseNext+0x170>
                        }else{
                            if ((pLDIR->LDIR_Ord & 0x3F) != OrderValue)
 30416c0:	e0bffc17 	ldw	r2,-16(fp)
 30416c4:	10800003 	ldbu	r2,0(r2)
 30416c8:	10803fcc 	andi	r2,r2,255
 30416cc:	10c00fcc 	andi	r3,r2,63
 30416d0:	e0bff917 	ldw	r2,-28(fp)
 30416d4:	18800226 	beq	r3,r2,30416e0 <Fat_FileBrowseNext+0x170>
                                bError = TRUE;
 30416d8:	00800044 	movi	r2,1
 30416dc:	e0bff715 	stw	r2,-36(fp)
                        }
                    }
                    
                    //                        
                    if (!bError){
 30416e0:	e0bff717 	ldw	r2,-36(fp)
 30416e4:	1000261e 	bne	r2,zero,3041780 <Fat_FileBrowseNext+0x210>
                        int BaseOffset;
                        bLongFilename = TRUE;
 30416e8:	00800044 	movi	r2,1
 30416ec:	e0bff815 	stw	r2,-32(fp)
                        OrderValue--;
 30416f0:	e0bff917 	ldw	r2,-28(fp)
 30416f4:	10bfffc4 	addi	r2,r2,-1
 30416f8:	e0bff915 	stw	r2,-28(fp)
                        BaseOffset = OrderValue * 26;
 30416fc:	e0bff917 	ldw	r2,-28(fp)
 3041700:	108006a4 	muli	r2,r2,26
 3041704:	e0bffd15 	stw	r2,-12(fp)
                        // cast filename
                        memcpy(pFileContext->szName+BaseOffset, pLDIR->LDIR_Name1, 10);
 3041708:	e0bffd17 	ldw	r2,-12(fp)
 304170c:	e0ffff17 	ldw	r3,-4(fp)
 3041710:	1887883a 	add	r3,r3,r2
 3041714:	e0bffc17 	ldw	r2,-16(fp)
 3041718:	10800044 	addi	r2,r2,1
 304171c:	1809883a 	mov	r4,r3
 3041720:	100b883a 	mov	r5,r2
 3041724:	01800284 	movi	r6,10
 3041728:	304b7280 	call	304b728 <memcpy>
                        memcpy(pFileContext->szName+BaseOffset+10, pLDIR->LDIR_Name2, 12);
 304172c:	e0bffd17 	ldw	r2,-12(fp)
 3041730:	10800284 	addi	r2,r2,10
 3041734:	e0ffff17 	ldw	r3,-4(fp)
 3041738:	1887883a 	add	r3,r3,r2
 304173c:	e0bffc17 	ldw	r2,-16(fp)
 3041740:	10800384 	addi	r2,r2,14
 3041744:	1809883a 	mov	r4,r3
 3041748:	100b883a 	mov	r5,r2
 304174c:	01800304 	movi	r6,12
 3041750:	304b7280 	call	304b728 <memcpy>
                        memcpy(pFileContext->szName+BaseOffset+22, pLDIR->LDIR_Name3, 4);
 3041754:	e0bffd17 	ldw	r2,-12(fp)
 3041758:	10800584 	addi	r2,r2,22
 304175c:	e0ffff17 	ldw	r3,-4(fp)
 3041760:	1887883a 	add	r3,r3,r2
 3041764:	e0bffc17 	ldw	r2,-16(fp)
 3041768:	10800704 	addi	r2,r2,28
 304176c:	1809883a 	mov	r4,r3
 3041770:	100b883a 	mov	r5,r2
 3041774:	01800104 	movi	r6,4
 3041778:	304b7280 	call	304b728 <memcpy>
 304177c:	00007a06 	br	3041968 <Fat_FileBrowseNext+0x3f8>
 3041780:	00007906 	br	3041968 <Fat_FileBrowseNext+0x3f8>
                    }                        
                }else{
                    if (bLongFilename){
 3041784:	e0bff817 	ldw	r2,-32(fp)
 3041788:	10000e26 	beq	r2,zero,30417c4 <Fat_FileBrowseNext+0x254>
                        pFileContext->Attribute = ATTR_LONG_NAME;
 304178c:	e0bfff17 	ldw	r2,-4(fp)
 3041790:	00c003c4 	movi	r3,15
 3041794:	10c04505 	stb	r3,276(r2)
                        if ((pDir->Attribute & (ATTR_ARCHIVE | ATTR_DIRECTORY)) == 0)
 3041798:	e0bffb17 	ldw	r2,-20(fp)
 304179c:	108002c3 	ldbu	r2,11(r2)
 30417a0:	10803fcc 	andi	r2,r2,255
 30417a4:	10800c0c 	andi	r2,r2,48
 30417a8:	1000031e 	bne	r2,zero,30417b8 <Fat_FileBrowseNext+0x248>
                            bError = TRUE;
 30417ac:	00800044 	movi	r2,1
 30417b0:	e0bff715 	stw	r2,-36(fp)
 30417b4:	00000906 	br	30417dc <Fat_FileBrowseNext+0x26c>
                        else    
                            bFind = TRUE;
 30417b8:	00800044 	movi	r2,1
 30417bc:	e0bff615 	stw	r2,-40(fp)
 30417c0:	00000606 	br	30417dc <Fat_FileBrowseNext+0x26c>
                    }else{
                        fatComposeShortFilename(pDir, pFileContext->szName);
 30417c4:	e0bfff17 	ldw	r2,-4(fp)
 30417c8:	e13ffb17 	ldw	r4,-20(fp)
 30417cc:	100b883a 	mov	r5,r2
 30417d0:	3041a9c0 	call	3041a9c <fatComposeShortFilename>
                        bFind = TRUE;
 30417d4:	00800044 	movi	r2,1
 30417d8:	e0bff615 	stw	r2,-40(fp)
                    }
                    
                    if (bFind){
 30417dc:	e0bff617 	ldw	r2,-40(fp)
 30417e0:	10006126 	beq	r2,zero,3041968 <Fat_FileBrowseNext+0x3f8>
                        // my ext
                        pFileContext->bLongFilename = bLongFilename;
 30417e4:	e0bfff17 	ldw	r2,-4(fp)
 30417e8:	e0fff817 	ldw	r3,-32(fp)
 30417ec:	10c04015 	stw	r3,256(r2)
                        pFileContext->bFile = (pDir->Attribute & ATTR_ARCHIVE)?TRUE:FALSE;
 30417f0:	e0bffb17 	ldw	r2,-20(fp)
 30417f4:	108002c3 	ldbu	r2,11(r2)
 30417f8:	10803fcc 	andi	r2,r2,255
 30417fc:	1080080c 	andi	r2,r2,32
 3041800:	1004c03a 	cmpne	r2,r2,zero
 3041804:	10c03fcc 	andi	r3,r2,255
 3041808:	e0bfff17 	ldw	r2,-4(fp)
 304180c:	10c04115 	stw	r3,260(r2)
                        pFileContext->bDirectory = (pDir->Attribute & ATTR_DIRECTORY)?TRUE:FALSE;
 3041810:	e0bffb17 	ldw	r2,-20(fp)
 3041814:	108002c3 	ldbu	r2,11(r2)
 3041818:	10803fcc 	andi	r2,r2,255
 304181c:	1080040c 	andi	r2,r2,16
 3041820:	1004c03a 	cmpne	r2,r2,zero
 3041824:	10c03fcc 	andi	r3,r2,255
 3041828:	e0bfff17 	ldw	r2,-4(fp)
 304182c:	10c04215 	stw	r3,264(r2)
                        pFileContext->bVolume = (pDir->Attribute & ATTR_VOLUME_ID)?TRUE:FALSE;
 3041830:	e0bffb17 	ldw	r2,-20(fp)
 3041834:	108002c3 	ldbu	r2,11(r2)
 3041838:	10803fcc 	andi	r2,r2,255
 304183c:	1080020c 	andi	r2,r2,8
 3041840:	1004c03a 	cmpne	r2,r2,zero
 3041844:	10c03fcc 	andi	r3,r2,255
 3041848:	e0bfff17 	ldw	r2,-4(fp)
 304184c:	10c04315 	stw	r3,268(r2)
                        pFileContext->DirEntryIndex = pFatBrowseHandle->DirectoryIndex; // add in v2.0.0
 3041850:	e0bffe17 	ldw	r2,-8(fp)
 3041854:	10c00017 	ldw	r3,0(r2)
 3041858:	e0bfff17 	ldw	r2,-4(fp)
 304185c:	10c04415 	stw	r3,272(r2)
                        
                        //
                        pFileContext->Attribute = pDir->Attribute;
 3041860:	e0bffb17 	ldw	r2,-20(fp)
 3041864:	10c002c3 	ldbu	r3,11(r2)
 3041868:	e0bfff17 	ldw	r2,-4(fp)
 304186c:	10c04505 	stb	r3,276(r2)
                        pFileContext->CreateTime = pDir->CreateTime;
 3041870:	e0bffb17 	ldw	r2,-20(fp)
 3041874:	10c00383 	ldbu	r3,14(r2)
 3041878:	108003c3 	ldbu	r2,15(r2)
 304187c:	1004923a 	slli	r2,r2,8
 3041880:	10c4b03a 	or	r2,r2,r3
 3041884:	1007883a 	mov	r3,r2
 3041888:	e0bfff17 	ldw	r2,-4(fp)
 304188c:	10c0458d 	sth	r3,278(r2)
                        pFileContext->LastAccessDate = pDir->LastAccessDate;
 3041890:	e0bffb17 	ldw	r2,-20(fp)
 3041894:	10c00483 	ldbu	r3,18(r2)
 3041898:	108004c3 	ldbu	r2,19(r2)
 304189c:	1004923a 	slli	r2,r2,8
 30418a0:	10c4b03a 	or	r2,r2,r3
 30418a4:	1007883a 	mov	r3,r2
 30418a8:	e0bfff17 	ldw	r2,-4(fp)
 30418ac:	10c0468d 	sth	r3,282(r2)
                        pFileContext->FirstLogicalClusterHi = pDir->FirstLogicalClusterHi;
 30418b0:	e0bffb17 	ldw	r2,-20(fp)
 30418b4:	10c00503 	ldbu	r3,20(r2)
 30418b8:	10800543 	ldbu	r2,21(r2)
 30418bc:	1004923a 	slli	r2,r2,8
 30418c0:	10c4b03a 	or	r2,r2,r3
 30418c4:	1007883a 	mov	r3,r2
 30418c8:	e0bfff17 	ldw	r2,-4(fp)
 30418cc:	10c0470d 	sth	r3,284(r2)
                        pFileContext->LastWriteTime = pDir->LastWriteTime;
 30418d0:	e0bffb17 	ldw	r2,-20(fp)
 30418d4:	10c00583 	ldbu	r3,22(r2)
 30418d8:	108005c3 	ldbu	r2,23(r2)
 30418dc:	1004923a 	slli	r2,r2,8
 30418e0:	10c4b03a 	or	r2,r2,r3
 30418e4:	1007883a 	mov	r3,r2
 30418e8:	e0bfff17 	ldw	r2,-4(fp)
 30418ec:	10c0478d 	sth	r3,286(r2)
                        pFileContext->LastWriteDate = pDir->LastWriteDate;
 30418f0:	e0bffb17 	ldw	r2,-20(fp)
 30418f4:	10c00603 	ldbu	r3,24(r2)
 30418f8:	10800643 	ldbu	r2,25(r2)
 30418fc:	1004923a 	slli	r2,r2,8
 3041900:	10c4b03a 	or	r2,r2,r3
 3041904:	1007883a 	mov	r3,r2
 3041908:	e0bfff17 	ldw	r2,-4(fp)
 304190c:	10c0480d 	sth	r3,288(r2)
                        pFileContext->FirstLogicalCluster = pDir->FirstLogicalCluster;
 3041910:	e0bffb17 	ldw	r2,-20(fp)
 3041914:	10c00683 	ldbu	r3,26(r2)
 3041918:	108006c3 	ldbu	r2,27(r2)
 304191c:	1004923a 	slli	r2,r2,8
 3041920:	10c4b03a 	or	r2,r2,r3
 3041924:	1007883a 	mov	r3,r2
 3041928:	e0bfff17 	ldw	r2,-4(fp)
 304192c:	10c0488d 	sth	r3,290(r2)
                        pFileContext->FileSize = pDir->FileSize;
 3041930:	e0bffb17 	ldw	r2,-20(fp)
 3041934:	10c00703 	ldbu	r3,28(r2)
 3041938:	11000743 	ldbu	r4,29(r2)
 304193c:	2008923a 	slli	r4,r4,8
 3041940:	20c6b03a 	or	r3,r4,r3
 3041944:	11000783 	ldbu	r4,30(r2)
 3041948:	2008943a 	slli	r4,r4,16
 304194c:	20c6b03a 	or	r3,r4,r3
 3041950:	108007c3 	ldbu	r2,31(r2)
 3041954:	1004963a 	slli	r2,r2,24
 3041958:	10c4b03a 	or	r2,r2,r3
 304195c:	1007883a 	mov	r3,r2
 3041960:	e0bfff17 	ldw	r2,-4(fp)
 3041964:	10c04915 	stw	r3,292(r2)
                    }                        
                }                    
            }                
        }            
    }while (!bFind && !fatIsLastDir(pDir) && !bError);
 3041968:	e0bff617 	ldw	r2,-40(fp)
 304196c:	1000051e 	bne	r2,zero,3041984 <Fat_FileBrowseNext+0x414>
 3041970:	e13ffb17 	ldw	r4,-20(fp)
 3041974:	3042ea40 	call	3042ea4 <fatIsLastDir>
 3041978:	1000021e 	bne	r2,zero,3041984 <Fat_FileBrowseNext+0x414>
 304197c:	e0bff717 	ldw	r2,-36(fp)
 3041980:	103f1126 	beq	r2,zero,30415c8 <__alt_data_end+0xfffc15c8>
    
    return bFind;
 3041984:	e0bff617 	ldw	r2,-40(fp)
    
}
 3041988:	e037883a 	mov	sp,fp
 304198c:	dfc00117 	ldw	ra,4(sp)
 3041990:	df000017 	ldw	fp,0(sp)
 3041994:	dec00204 	addi	sp,sp,8
 3041998:	f800283a 	ret

0304199c <Fat_FileCount>:


unsigned int Fat_FileCount(FAT_HANDLE Fat){
 304199c:	deffb004 	addi	sp,sp,-320
 30419a0:	dfc04f15 	stw	ra,316(sp)
 30419a4:	df004e15 	stw	fp,312(sp)
 30419a8:	df004e04 	addi	fp,sp,312
 30419ac:	e13fff15 	stw	r4,-4(fp)
    unsigned int nCount = 0;
 30419b0:	e03fb215 	stw	zero,-312(fp)
    FAT_BROWSE_HANDLE hBrowse;
    FILE_CONTEXT FileContext;
    
    if (Fat_FileBrowseBegin(Fat, &hBrowse)){
 30419b4:	e0bfb304 	addi	r2,fp,-308
 30419b8:	e13fff17 	ldw	r4,-4(fp)
 30419bc:	100b883a 	mov	r5,r2
 30419c0:	30415040 	call	3041504 <Fat_FileBrowseBegin>
 30419c4:	10000a26 	beq	r2,zero,30419f0 <Fat_FileCount+0x54>
        while(Fat_FileBrowseNext(&hBrowse, &FileContext))
 30419c8:	00000306 	br	30419d8 <Fat_FileCount+0x3c>
            nCount++;
 30419cc:	e0bfb217 	ldw	r2,-312(fp)
 30419d0:	10800044 	addi	r2,r2,1
 30419d4:	e0bfb215 	stw	r2,-312(fp)
    unsigned int nCount = 0;
    FAT_BROWSE_HANDLE hBrowse;
    FILE_CONTEXT FileContext;
    
    if (Fat_FileBrowseBegin(Fat, &hBrowse)){
        while(Fat_FileBrowseNext(&hBrowse, &FileContext))
 30419d8:	e0ffb304 	addi	r3,fp,-308
 30419dc:	e0bfb504 	addi	r2,fp,-300
 30419e0:	1809883a 	mov	r4,r3
 30419e4:	100b883a 	mov	r5,r2
 30419e8:	30415700 	call	3041570 <Fat_FileBrowseNext>
 30419ec:	103ff71e 	bne	r2,zero,30419cc <__alt_data_end+0xfffc19cc>
            nCount++;
    }
    
    return nCount;
 30419f0:	e0bfb217 	ldw	r2,-312(fp)
}
 30419f4:	e037883a 	mov	sp,fp
 30419f8:	dfc00117 	ldw	ra,4(sp)
 30419fc:	df000017 	ldw	fp,0(sp)
 3041a00:	dec00204 	addi	sp,sp,8
 3041a04:	f800283a 	ret

03041a08 <fatSameLongFilename>:

bool fatSameLongFilename(alt_u16 *p1, alt_u16 *p2){
 3041a08:	defffc04 	addi	sp,sp,-16
 3041a0c:	df000315 	stw	fp,12(sp)
 3041a10:	df000304 	addi	fp,sp,12
 3041a14:	e13ffe15 	stw	r4,-8(fp)
 3041a18:	e17fff15 	stw	r5,-4(fp)
    bool bSame = TRUE;
 3041a1c:	00800044 	movi	r2,1
 3041a20:	e0bffd15 	stw	r2,-12(fp)
    
    while(bSame && ((*p1 != 0) || (*p2 != 0))){
 3041a24:	00000e06 	br	3041a60 <fatSameLongFilename+0x58>
        if (*p1 != *p2){
 3041a28:	e0bffe17 	ldw	r2,-8(fp)
 3041a2c:	10c0000b 	ldhu	r3,0(r2)
 3041a30:	e0bfff17 	ldw	r2,-4(fp)
 3041a34:	1080000b 	ldhu	r2,0(r2)
 3041a38:	18ffffcc 	andi	r3,r3,65535
 3041a3c:	10bfffcc 	andi	r2,r2,65535
 3041a40:	18800126 	beq	r3,r2,3041a48 <fatSameLongFilename+0x40>
            bSame = FALSE;
 3041a44:	e03ffd15 	stw	zero,-12(fp)
        }
        p1++;
 3041a48:	e0bffe17 	ldw	r2,-8(fp)
 3041a4c:	10800084 	addi	r2,r2,2
 3041a50:	e0bffe15 	stw	r2,-8(fp)
        p2++;
 3041a54:	e0bfff17 	ldw	r2,-4(fp)
 3041a58:	10800084 	addi	r2,r2,2
 3041a5c:	e0bfff15 	stw	r2,-4(fp)
}

bool fatSameLongFilename(alt_u16 *p1, alt_u16 *p2){
    bool bSame = TRUE;
    
    while(bSame && ((*p1 != 0) || (*p2 != 0))){
 3041a60:	e0bffd17 	ldw	r2,-12(fp)
 3041a64:	10000826 	beq	r2,zero,3041a88 <fatSameLongFilename+0x80>
 3041a68:	e0bffe17 	ldw	r2,-8(fp)
 3041a6c:	1080000b 	ldhu	r2,0(r2)
 3041a70:	10bfffcc 	andi	r2,r2,65535
 3041a74:	103fec1e 	bne	r2,zero,3041a28 <__alt_data_end+0xfffc1a28>
 3041a78:	e0bfff17 	ldw	r2,-4(fp)
 3041a7c:	1080000b 	ldhu	r2,0(r2)
 3041a80:	10bfffcc 	andi	r2,r2,65535
 3041a84:	103fe81e 	bne	r2,zero,3041a28 <__alt_data_end+0xfffc1a28>
        p1++;
        p2++;
        
    }
    
    return bSame;
 3041a88:	e0bffd17 	ldw	r2,-12(fp)
}
 3041a8c:	e037883a 	mov	sp,fp
 3041a90:	df000017 	ldw	fp,0(sp)
 3041a94:	dec00104 	addi	sp,sp,4
 3041a98:	f800283a 	ret

03041a9c <fatComposeShortFilename>:


void fatComposeShortFilename(FAT_DIRECTORY *pDir, char *szFilename){
 3041a9c:	defffb04 	addi	sp,sp,-20
 3041aa0:	df000415 	stw	fp,16(sp)
 3041aa4:	df000404 	addi	fp,sp,16
 3041aa8:	e13ffe15 	stw	r4,-8(fp)
 3041aac:	e17fff15 	stw	r5,-4(fp)
    int i,nPos=0;
 3041ab0:	e03ffd15 	stw	zero,-12(fp)
    
    i=0;
 3041ab4:	e03ffc15 	stw	zero,-16(fp)
    while(i < 8 && pDir->Name[i] != 0 && pDir->Name[i] != ' ')
 3041ab8:	00000d06 	br	3041af0 <fatComposeShortFilename+0x54>
        szFilename[nPos++] = pDir->Name[i++];
 3041abc:	e0bffd17 	ldw	r2,-12(fp)
 3041ac0:	10c00044 	addi	r3,r2,1
 3041ac4:	e0fffd15 	stw	r3,-12(fp)
 3041ac8:	1007883a 	mov	r3,r2
 3041acc:	e0bfff17 	ldw	r2,-4(fp)
 3041ad0:	10c7883a 	add	r3,r2,r3
 3041ad4:	e0bffc17 	ldw	r2,-16(fp)
 3041ad8:	11000044 	addi	r4,r2,1
 3041adc:	e13ffc15 	stw	r4,-16(fp)
 3041ae0:	e13ffe17 	ldw	r4,-8(fp)
 3041ae4:	2085883a 	add	r2,r4,r2
 3041ae8:	10800003 	ldbu	r2,0(r2)
 3041aec:	18800005 	stb	r2,0(r3)

void fatComposeShortFilename(FAT_DIRECTORY *pDir, char *szFilename){
    int i,nPos=0;
    
    i=0;
    while(i < 8 && pDir->Name[i] != 0 && pDir->Name[i] != ' ')
 3041af0:	e0bffc17 	ldw	r2,-16(fp)
 3041af4:	10800208 	cmpgei	r2,r2,8
 3041af8:	1000111e 	bne	r2,zero,3041b40 <fatComposeShortFilename+0xa4>
 3041afc:	e0fffe17 	ldw	r3,-8(fp)
 3041b00:	e0bffc17 	ldw	r2,-16(fp)
 3041b04:	1885883a 	add	r2,r3,r2
 3041b08:	10800003 	ldbu	r2,0(r2)
 3041b0c:	10803fcc 	andi	r2,r2,255
 3041b10:	1080201c 	xori	r2,r2,128
 3041b14:	10bfe004 	addi	r2,r2,-128
 3041b18:	10000926 	beq	r2,zero,3041b40 <fatComposeShortFilename+0xa4>
 3041b1c:	e0fffe17 	ldw	r3,-8(fp)
 3041b20:	e0bffc17 	ldw	r2,-16(fp)
 3041b24:	1885883a 	add	r2,r3,r2
 3041b28:	10800003 	ldbu	r2,0(r2)
 3041b2c:	10803fcc 	andi	r2,r2,255
 3041b30:	1080201c 	xori	r2,r2,128
 3041b34:	10bfe004 	addi	r2,r2,-128
 3041b38:	10800818 	cmpnei	r2,r2,32
 3041b3c:	103fdf1e 	bne	r2,zero,3041abc <__alt_data_end+0xfffc1abc>
        szFilename[nPos++] = pDir->Name[i++];
    
    if (pDir->Attribute & (ATTR_ARCHIVE | ATTR_DIRECTORY)){
 3041b40:	e0bffe17 	ldw	r2,-8(fp)
 3041b44:	108002c3 	ldbu	r2,11(r2)
 3041b48:	10803fcc 	andi	r2,r2,255
 3041b4c:	10800c0c 	andi	r2,r2,48
 3041b50:	10003326 	beq	r2,zero,3041c20 <fatComposeShortFilename+0x184>
        if (pDir->Attribute & (ATTR_ARCHIVE | ATTR_DIRECTORY))     
 3041b54:	e0bffe17 	ldw	r2,-8(fp)
 3041b58:	108002c3 	ldbu	r2,11(r2)
 3041b5c:	10803fcc 	andi	r2,r2,255
 3041b60:	10800c0c 	andi	r2,r2,48
 3041b64:	10000826 	beq	r2,zero,3041b88 <fatComposeShortFilename+0xec>
            szFilename[nPos++] = '.';   
 3041b68:	e0bffd17 	ldw	r2,-12(fp)
 3041b6c:	10c00044 	addi	r3,r2,1
 3041b70:	e0fffd15 	stw	r3,-12(fp)
 3041b74:	1007883a 	mov	r3,r2
 3041b78:	e0bfff17 	ldw	r2,-4(fp)
 3041b7c:	10c5883a 	add	r2,r2,r3
 3041b80:	00c00b84 	movi	r3,46
 3041b84:	10c00005 	stb	r3,0(r2)
        i=0;
 3041b88:	e03ffc15 	stw	zero,-16(fp)
        while(i < 3 && pDir->Extension[i] != 0 && pDir->Extension[i] != ' ')
 3041b8c:	00000e06 	br	3041bc8 <fatComposeShortFilename+0x12c>
            szFilename[nPos++] = pDir->Extension[i++];
 3041b90:	e0bffd17 	ldw	r2,-12(fp)
 3041b94:	10c00044 	addi	r3,r2,1
 3041b98:	e0fffd15 	stw	r3,-12(fp)
 3041b9c:	1007883a 	mov	r3,r2
 3041ba0:	e0bfff17 	ldw	r2,-4(fp)
 3041ba4:	10c7883a 	add	r3,r2,r3
 3041ba8:	e0bffc17 	ldw	r2,-16(fp)
 3041bac:	11000044 	addi	r4,r2,1
 3041bb0:	e13ffc15 	stw	r4,-16(fp)
 3041bb4:	e13ffe17 	ldw	r4,-8(fp)
 3041bb8:	2085883a 	add	r2,r4,r2
 3041bbc:	10800204 	addi	r2,r2,8
 3041bc0:	10800003 	ldbu	r2,0(r2)
 3041bc4:	18800005 	stb	r2,0(r3)
    
    if (pDir->Attribute & (ATTR_ARCHIVE | ATTR_DIRECTORY)){
        if (pDir->Attribute & (ATTR_ARCHIVE | ATTR_DIRECTORY))     
            szFilename[nPos++] = '.';   
        i=0;
        while(i < 3 && pDir->Extension[i] != 0 && pDir->Extension[i] != ' ')
 3041bc8:	e0bffc17 	ldw	r2,-16(fp)
 3041bcc:	108000c8 	cmpgei	r2,r2,3
 3041bd0:	1000131e 	bne	r2,zero,3041c20 <fatComposeShortFilename+0x184>
 3041bd4:	e0fffe17 	ldw	r3,-8(fp)
 3041bd8:	e0bffc17 	ldw	r2,-16(fp)
 3041bdc:	1885883a 	add	r2,r3,r2
 3041be0:	10800204 	addi	r2,r2,8
 3041be4:	10800003 	ldbu	r2,0(r2)
 3041be8:	10803fcc 	andi	r2,r2,255
 3041bec:	1080201c 	xori	r2,r2,128
 3041bf0:	10bfe004 	addi	r2,r2,-128
 3041bf4:	10000a26 	beq	r2,zero,3041c20 <fatComposeShortFilename+0x184>
 3041bf8:	e0fffe17 	ldw	r3,-8(fp)
 3041bfc:	e0bffc17 	ldw	r2,-16(fp)
 3041c00:	1885883a 	add	r2,r3,r2
 3041c04:	10800204 	addi	r2,r2,8
 3041c08:	10800003 	ldbu	r2,0(r2)
 3041c0c:	10803fcc 	andi	r2,r2,255
 3041c10:	1080201c 	xori	r2,r2,128
 3041c14:	10bfe004 	addi	r2,r2,-128
 3041c18:	10800818 	cmpnei	r2,r2,32
 3041c1c:	103fdc1e 	bne	r2,zero,3041b90 <__alt_data_end+0xfffc1b90>
            szFilename[nPos++] = pDir->Extension[i++];
    }            
    szFilename[nPos++] = 0;
 3041c20:	e0bffd17 	ldw	r2,-12(fp)
 3041c24:	10c00044 	addi	r3,r2,1
 3041c28:	e0fffd15 	stw	r3,-12(fp)
 3041c2c:	1007883a 	mov	r3,r2
 3041c30:	e0bfff17 	ldw	r2,-4(fp)
 3041c34:	10c5883a 	add	r2,r2,r3
 3041c38:	10000005 	stb	zero,0(r2)
}
 3041c3c:	e037883a 	mov	sp,fp
 3041c40:	df000017 	ldw	fp,0(sp)
 3041c44:	dec00104 	addi	sp,sp,4
 3041c48:	f800283a 	ret

03041c4c <Fat_FileExist>:





bool Fat_FileExist(FAT_HANDLE Fat, const char *pFilename){
 3041c4c:	deffaf04 	addi	sp,sp,-324
 3041c50:	dfc05015 	stw	ra,320(sp)
 3041c54:	df004f15 	stw	fp,316(sp)
 3041c58:	df004f04 	addi	fp,sp,316
 3041c5c:	e13ffe15 	stw	r4,-8(fp)
 3041c60:	e17fff15 	stw	r5,-4(fp)
    bool bFind = FALSE;
 3041c64:	e03fb115 	stw	zero,-316(fp)
    FAT_BROWSE_HANDLE hBrowse;     
    FILE_CONTEXT FileContext;
    if (Fat_FileBrowseBegin(Fat, &hBrowse)){
 3041c68:	e0bfb204 	addi	r2,fp,-312
 3041c6c:	e13ffe17 	ldw	r4,-8(fp)
 3041c70:	100b883a 	mov	r5,r2
 3041c74:	30415040 	call	3041504 <Fat_FileBrowseBegin>
 3041c78:	10001a26 	beq	r2,zero,3041ce4 <Fat_FileExist+0x98>
        while (!bFind && Fat_FileBrowseNext(&hBrowse, &FileContext)){
 3041c7c:	00000f06 	br	3041cbc <Fat_FileExist+0x70>
            if (FileContext.bLongFilename){
 3041c80:	e0bff417 	ldw	r2,-48(fp)
 3041c84:	10000626 	beq	r2,zero,3041ca0 <Fat_FileExist+0x54>
                bFind = fatSameLongFilename((alt_u16 *)FileContext.szName, (alt_u16 *)pFilename);
 3041c88:	e0bfb404 	addi	r2,fp,-304
 3041c8c:	1009883a 	mov	r4,r2
 3041c90:	e17fff17 	ldw	r5,-4(fp)
 3041c94:	3041a080 	call	3041a08 <fatSameLongFilename>
 3041c98:	e0bfb115 	stw	r2,-316(fp)
 3041c9c:	00000706 	br	3041cbc <Fat_FileExist+0x70>
            }else{
                if (strcmpi(FileContext.szName, pFilename) == 0)
 3041ca0:	e0bfb404 	addi	r2,fp,-304
 3041ca4:	1009883a 	mov	r4,r2
 3041ca8:	e17fff17 	ldw	r5,-4(fp)
 3041cac:	304bf680 	call	304bf68 <strcasecmp>
 3041cb0:	1000021e 	bne	r2,zero,3041cbc <Fat_FileExist+0x70>
                    bFind = TRUE;
 3041cb4:	00800044 	movi	r2,1
 3041cb8:	e0bfb115 	stw	r2,-316(fp)
bool Fat_FileExist(FAT_HANDLE Fat, const char *pFilename){
    bool bFind = FALSE;
    FAT_BROWSE_HANDLE hBrowse;     
    FILE_CONTEXT FileContext;
    if (Fat_FileBrowseBegin(Fat, &hBrowse)){
        while (!bFind && Fat_FileBrowseNext(&hBrowse, &FileContext)){
 3041cbc:	e0bfb117 	ldw	r2,-316(fp)
 3041cc0:	1000061e 	bne	r2,zero,3041cdc <Fat_FileExist+0x90>
 3041cc4:	e0ffb204 	addi	r3,fp,-312
 3041cc8:	e0bfb404 	addi	r2,fp,-304
 3041ccc:	1809883a 	mov	r4,r3
 3041cd0:	100b883a 	mov	r5,r2
 3041cd4:	30415700 	call	3041570 <Fat_FileBrowseNext>
 3041cd8:	103fe91e 	bne	r2,zero,3041c80 <__alt_data_end+0xfffc1c80>
            }else{
                if (strcmpi(FileContext.szName, pFilename) == 0)
                    bFind = TRUE;
            }    
        } // while 
        Fat_FileClose(Fat); 
 3041cdc:	e13ffe17 	ldw	r4,-8(fp)
 3041ce0:	30424f80 	call	30424f8 <Fat_FileClose>
    }
    return bFind;            
 3041ce4:	e0bfb117 	ldw	r2,-316(fp)
}    
 3041ce8:	e037883a 	mov	sp,fp
 3041cec:	dfc00117 	ldw	ra,4(sp)
 3041cf0:	df000017 	ldw	fp,0(sp)
 3041cf4:	dec00204 	addi	sp,sp,8
 3041cf8:	f800283a 	ret

03041cfc <Fat_FileOpen>:
 
// File Access
FAT_FILE_HANDLE Fat_FileOpen(FAT_HANDLE Fat, const char *pFilename){
 3041cfc:	deff6b04 	addi	sp,sp,-596
 3041d00:	dfc09415 	stw	ra,592(sp)
 3041d04:	df009315 	stw	fp,588(sp)
 3041d08:	df009304 	addi	fp,sp,588
 3041d0c:	e13ffe15 	stw	r4,-8(fp)
 3041d10:	e17fff15 	stw	r5,-4(fp)
    bool bFind = FALSE;
 3041d14:	e03f6d15 	stw	zero,-588(fp)
    FAT_BROWSE_HANDLE hBrowse;     
    FILE_CONTEXT FileContext;
    FAT_FILE_INFO *pFile = 0;
 3041d18:	e03f6e15 	stw	zero,-584(fp)
    int nPos = 0;
 3041d1c:	e03f6f15 	stw	zero,-580(fp)
    char szWaveFilename[MAX_FILENAME_LENGTH];
    
    if (Fat_FileBrowseBegin(Fat, &hBrowse)){
 3041d20:	e0bf7204 	addi	r2,fp,-568
 3041d24:	e13ffe17 	ldw	r4,-8(fp)
 3041d28:	100b883a 	mov	r5,r2
 3041d2c:	30415040 	call	3041504 <Fat_FileBrowseBegin>
 3041d30:	10007426 	beq	r2,zero,3041f04 <Fat_FileOpen+0x208>
        while (!bFind && Fat_FileBrowseNext(&hBrowse, &FileContext)){
 3041d34:	00004c06 	br	3041e68 <Fat_FileOpen+0x16c>
            if (FileContext.bLongFilename){
 3041d38:	e0bfb417 	ldw	r2,-304(fp)
 3041d3c:	10004326 	beq	r2,zero,3041e4c <Fat_FileOpen+0x150>
                //bFind = fatSameLongFilename((alt_u16 *)FileContext.szName, (alt_u16 *)pFilename);
                nPos = 0;
 3041d40:	e03f6f15 	stw	zero,-580(fp)
                alt_u16 *pData16;
                alt_u8 *pData8;
                pData16 = (alt_u16 *)FileContext.szName;
 3041d44:	e0bf7404 	addi	r2,fp,-560
 3041d48:	e0bf7015 	stw	r2,-576(fp)
                pData8 = FileContext.szName;
 3041d4c:	e0bf7404 	addi	r2,fp,-560
 3041d50:	e0bf7115 	stw	r2,-572(fp)
                while(*pData16){
 3041d54:	00002d06 	br	3041e0c <Fat_FileOpen+0x110>
                    if (*pData8 && *pData8 != ' ')
 3041d58:	e0bf7117 	ldw	r2,-572(fp)
 3041d5c:	10800003 	ldbu	r2,0(r2)
 3041d60:	10803fcc 	andi	r2,r2,255
 3041d64:	10000e26 	beq	r2,zero,3041da0 <Fat_FileOpen+0xa4>
 3041d68:	e0bf7117 	ldw	r2,-572(fp)
 3041d6c:	10800003 	ldbu	r2,0(r2)
 3041d70:	10803fcc 	andi	r2,r2,255
 3041d74:	10800820 	cmpeqi	r2,r2,32
 3041d78:	1000091e 	bne	r2,zero,3041da0 <Fat_FileOpen+0xa4>
                        szWaveFilename[nPos++] = *pData8;
 3041d7c:	e0bf6f17 	ldw	r2,-580(fp)
 3041d80:	10c00044 	addi	r3,r2,1
 3041d84:	e0ff6f15 	stw	r3,-580(fp)
 3041d88:	e0ff7117 	ldw	r3,-572(fp)
 3041d8c:	18c00003 	ldbu	r3,0(r3)
 3041d90:	1809883a 	mov	r4,r3
 3041d94:	e0ffbe04 	addi	r3,fp,-264
 3041d98:	1885883a 	add	r2,r3,r2
 3041d9c:	11000005 	stb	r4,0(r2)
                    pData8++;
 3041da0:	e0bf7117 	ldw	r2,-572(fp)
 3041da4:	10800044 	addi	r2,r2,1
 3041da8:	e0bf7115 	stw	r2,-572(fp)
                    if (*pData8 && *pData8 != ' ')
 3041dac:	e0bf7117 	ldw	r2,-572(fp)
 3041db0:	10800003 	ldbu	r2,0(r2)
 3041db4:	10803fcc 	andi	r2,r2,255
 3041db8:	10000e26 	beq	r2,zero,3041df4 <Fat_FileOpen+0xf8>
 3041dbc:	e0bf7117 	ldw	r2,-572(fp)
 3041dc0:	10800003 	ldbu	r2,0(r2)
 3041dc4:	10803fcc 	andi	r2,r2,255
 3041dc8:	10800820 	cmpeqi	r2,r2,32
 3041dcc:	1000091e 	bne	r2,zero,3041df4 <Fat_FileOpen+0xf8>
                        szWaveFilename[nPos++] = *pData8;
 3041dd0:	e0bf6f17 	ldw	r2,-580(fp)
 3041dd4:	10c00044 	addi	r3,r2,1
 3041dd8:	e0ff6f15 	stw	r3,-580(fp)
 3041ddc:	e0ff7117 	ldw	r3,-572(fp)
 3041de0:	18c00003 	ldbu	r3,0(r3)
 3041de4:	1809883a 	mov	r4,r3
 3041de8:	e0ffbe04 	addi	r3,fp,-264
 3041dec:	1885883a 	add	r2,r3,r2
 3041df0:	11000005 	stb	r4,0(r2)
                    pData8++;                    
 3041df4:	e0bf7117 	ldw	r2,-572(fp)
 3041df8:	10800044 	addi	r2,r2,1
 3041dfc:	e0bf7115 	stw	r2,-572(fp)
                    //    
                    pData16++;
 3041e00:	e0bf7017 	ldw	r2,-576(fp)
 3041e04:	10800084 	addi	r2,r2,2
 3041e08:	e0bf7015 	stw	r2,-576(fp)
                nPos = 0;
                alt_u16 *pData16;
                alt_u8 *pData8;
                pData16 = (alt_u16 *)FileContext.szName;
                pData8 = FileContext.szName;
                while(*pData16){
 3041e0c:	e0bf7017 	ldw	r2,-576(fp)
 3041e10:	1080000b 	ldhu	r2,0(r2)
 3041e14:	10bfffcc 	andi	r2,r2,65535
 3041e18:	103fcf1e 	bne	r2,zero,3041d58 <__alt_data_end+0xfffc1d58>
                        szWaveFilename[nPos++] = *pData8;
                    pData8++;                    
                    //    
                    pData16++;
                }
                szWaveFilename[nPos] = 0;
 3041e1c:	e0ffbe04 	addi	r3,fp,-264
 3041e20:	e0bf6f17 	ldw	r2,-580(fp)
 3041e24:	1885883a 	add	r2,r3,r2
 3041e28:	10000005 	stb	zero,0(r2)
                
                if(strcmp(pFilename,szWaveFilename) == 0)
 3041e2c:	e0bfbe04 	addi	r2,fp,-264
 3041e30:	e13fff17 	ldw	r4,-4(fp)
 3041e34:	100b883a 	mov	r5,r2
 3041e38:	304bfd80 	call	304bfd8 <strcmp>
 3041e3c:	1000021e 	bne	r2,zero,3041e48 <Fat_FileOpen+0x14c>
                    bFind = TRUE;
 3041e40:	00800044 	movi	r2,1
 3041e44:	e0bf6d15 	stw	r2,-588(fp)
 3041e48:	00000706 	br	3041e68 <Fat_FileOpen+0x16c>
            }else{
                if (strcmpi(FileContext.szName, pFilename) == 0)
 3041e4c:	e0bf7404 	addi	r2,fp,-560
 3041e50:	1009883a 	mov	r4,r2
 3041e54:	e17fff17 	ldw	r5,-4(fp)
 3041e58:	304bf680 	call	304bf68 <strcasecmp>
 3041e5c:	1000021e 	bne	r2,zero,3041e68 <Fat_FileOpen+0x16c>
                    bFind = TRUE;
 3041e60:	00800044 	movi	r2,1
 3041e64:	e0bf6d15 	stw	r2,-588(fp)
    FAT_FILE_INFO *pFile = 0;
    int nPos = 0;
    char szWaveFilename[MAX_FILENAME_LENGTH];
    
    if (Fat_FileBrowseBegin(Fat, &hBrowse)){
        while (!bFind && Fat_FileBrowseNext(&hBrowse, &FileContext)){
 3041e68:	e0bf6d17 	ldw	r2,-588(fp)
 3041e6c:	1000061e 	bne	r2,zero,3041e88 <Fat_FileOpen+0x18c>
 3041e70:	e0ff7204 	addi	r3,fp,-568
 3041e74:	e0bf7404 	addi	r2,fp,-560
 3041e78:	1809883a 	mov	r4,r3
 3041e7c:	100b883a 	mov	r5,r2
 3041e80:	30415700 	call	3041570 <Fat_FileBrowseNext>
 3041e84:	103fac1e 	bne	r2,zero,3041d38 <__alt_data_end+0xfffc1d38>
                if (strcmpi(FileContext.szName, pFilename) == 0)
                    bFind = TRUE;
            }    
        } // while 
        
        if (bFind){
 3041e88:	e0bf6d17 	ldw	r2,-588(fp)
 3041e8c:	10001d26 	beq	r2,zero,3041f04 <Fat_FileOpen+0x208>
            pFile = malloc(sizeof(FAT_FILE_INFO));
 3041e90:	01005004 	movi	r4,320
 3041e94:	304af580 	call	304af58 <malloc>
 3041e98:	e0bf6e15 	stw	r2,-584(fp)
            if (pFile){
 3041e9c:	e0bf6e17 	ldw	r2,-584(fp)
 3041ea0:	10001826 	beq	r2,zero,3041f04 <Fat_FileOpen+0x208>
                pFile->OpenAttribute = FILE_OPEN_READ; 
 3041ea4:	e0bf6e17 	ldw	r2,-584(fp)
 3041ea8:	00c00044 	movi	r3,1
 3041eac:	10c00115 	stw	r3,4(r2)
                pFile->SeekPos = 0;
 3041eb0:	e0bf6e17 	ldw	r2,-584(fp)
 3041eb4:	10000215 	stw	zero,8(r2)
                pFile->Directory = FileContext;
 3041eb8:	e0bf6e17 	ldw	r2,-584(fp)
 3041ebc:	11000504 	addi	r4,r2,20
 3041ec0:	e0ff7404 	addi	r3,fp,-560
 3041ec4:	00804a04 	movi	r2,296
 3041ec8:	180b883a 	mov	r5,r3
 3041ecc:	100d883a 	mov	r6,r2
 3041ed0:	304b7280 	call	304b728 <memcpy>
                pFile->IsOpened = TRUE;
 3041ed4:	e0bf6e17 	ldw	r2,-584(fp)
 3041ed8:	00c00044 	movi	r3,1
 3041edc:	10c00015 	stw	r3,0(r2)
                pFile->Cluster = FileContext.FirstLogicalCluster;
 3041ee0:	e0bfbc8b 	ldhu	r2,-270(fp)
 3041ee4:	10ffffcc 	andi	r3,r2,65535
 3041ee8:	e0bf6e17 	ldw	r2,-584(fp)
 3041eec:	10c00315 	stw	r3,12(r2)
                pFile->ClusterSeq = 0;
 3041ef0:	e0bf6e17 	ldw	r2,-584(fp)
 3041ef4:	10000415 	stw	zero,16(r2)
                pFile->Fat = Fat;
 3041ef8:	e0bf6e17 	ldw	r2,-584(fp)
 3041efc:	e0fffe17 	ldw	r3,-8(fp)
 3041f00:	10c04f15 	stw	r3,316(r2)
            }    
        }    
    }  

    
    return (FAT_FILE_HANDLE)pFile;  
 3041f04:	e0bf6e17 	ldw	r2,-584(fp)
}
 3041f08:	e037883a 	mov	sp,fp
 3041f0c:	dfc00117 	ldw	ra,4(sp)
 3041f10:	df000017 	ldw	fp,0(sp)
 3041f14:	dec00204 	addi	sp,sp,8
 3041f18:	f800283a 	ret

03041f1c <Fat_FileSize>:


unsigned int Fat_FileSize(FAT_FILE_HANDLE hFileHandle){
 3041f1c:	defffd04 	addi	sp,sp,-12
 3041f20:	df000215 	stw	fp,8(sp)
 3041f24:	df000204 	addi	fp,sp,8
 3041f28:	e13fff15 	stw	r4,-4(fp)
    FAT_FILE_INFO *f = (FAT_FILE_INFO *)hFileHandle;
 3041f2c:	e0bfff17 	ldw	r2,-4(fp)
 3041f30:	e0bffe15 	stw	r2,-8(fp)
    if (f->IsOpened)
 3041f34:	e0bffe17 	ldw	r2,-8(fp)
 3041f38:	10800017 	ldw	r2,0(r2)
 3041f3c:	10000326 	beq	r2,zero,3041f4c <Fat_FileSize+0x30>
        return f->Directory.FileSize;
 3041f40:	e0bffe17 	ldw	r2,-8(fp)
 3041f44:	10804e17 	ldw	r2,312(r2)
 3041f48:	00000106 	br	3041f50 <Fat_FileSize+0x34>
    return 0;        
 3041f4c:	0005883a 	mov	r2,zero
}
 3041f50:	e037883a 	mov	sp,fp
 3041f54:	df000017 	ldw	fp,0(sp)
 3041f58:	dec00104 	addi	sp,sp,4
 3041f5c:	f800283a 	ret

03041f60 <Fat_FileRead>:


bool Fat_FileRead(FAT_FILE_HANDLE hFileHandle, void *pBuffer, const int nBufferSize){
 3041f60:	deffef04 	addi	sp,sp,-68
 3041f64:	dfc01015 	stw	ra,64(sp)
 3041f68:	df000f15 	stw	fp,60(sp)
 3041f6c:	df000f04 	addi	fp,sp,60
 3041f70:	e13ffd15 	stw	r4,-12(fp)
 3041f74:	e17ffe15 	stw	r5,-8(fp)
 3041f78:	e1bfff15 	stw	r6,-4(fp)
    FAT_FILE_INFO *f = (FAT_FILE_INFO *)hFileHandle;
 3041f7c:	e0bffd17 	ldw	r2,-12(fp)
 3041f80:	e0bff915 	stw	r2,-28(fp)
    VOLUME_INFO *pVol;
    alt_u32 Pos, PhysicalSecter, NextCluster, Cluster;
    alt_u32 BytesPerCluster, nReadCount=0, nClusterSeq;
 3041f84:	e03ff415 	stw	zero,-48(fp)
    int s;
    bool bSuccess= TRUE;
 3041f88:	00800044 	movi	r2,1
 3041f8c:	e0bff715 	stw	r2,-36(fp)
    
    if (!f || !f->Fat)
 3041f90:	e0bff917 	ldw	r2,-28(fp)
 3041f94:	10000326 	beq	r2,zero,3041fa4 <Fat_FileRead+0x44>
 3041f98:	e0bff917 	ldw	r2,-28(fp)
 3041f9c:	10804f17 	ldw	r2,316(r2)
 3041fa0:	1000021e 	bne	r2,zero,3041fac <Fat_FileRead+0x4c>
        return FALSE;
 3041fa4:	0005883a 	mov	r2,zero
 3041fa8:	00010e06 	br	30423e4 <Fat_FileRead+0x484>
    pVol = (VOLUME_INFO *)f->Fat;        
 3041fac:	e0bff917 	ldw	r2,-28(fp)
 3041fb0:	10804f17 	ldw	r2,316(r2)
 3041fb4:	e0bffa15 	stw	r2,-24(fp)
    
    if (!f->IsOpened){
 3041fb8:	e0bff917 	ldw	r2,-28(fp)
 3041fbc:	10800017 	ldw	r2,0(r2)
 3041fc0:	1000051e 	bne	r2,zero,3041fd8 <Fat_FileRead+0x78>
        FAT_DEBUG(("[FAT] Fat_FileRead, file not opened\r\n"));
 3041fc4:	0100c1f4 	movhi	r4,775
 3041fc8:	2121f604 	addi	r4,r4,-30760
 3041fcc:	3045e5c0 	call	3045e5c <myprintf>
        return bSuccess;
 3041fd0:	e0bff717 	ldw	r2,-36(fp)
 3041fd4:	00010306 	br	30423e4 <Fat_FileRead+0x484>
    }        
        
    BytesPerCluster = pVol->nBytesPerCluster; //gVolumeInfo.BPB_BytsPerSec * gVolumeInfo.BPB_SecPerCluster;  
 3041fd8:	e0bffa17 	ldw	r2,-24(fp)
 3041fdc:	10800c17 	ldw	r2,48(r2)
 3041fe0:	e0bffb15 	stw	r2,-20(fp)
    Pos = f->SeekPos;
 3041fe4:	e0bff917 	ldw	r2,-28(fp)
 3041fe8:	10800217 	ldw	r2,8(r2)
 3041fec:	e0bff115 	stw	r2,-60(fp)
    if (BytesPerCluster == 32768){
 3041ff0:	e0fffb17 	ldw	r3,-20(fp)
 3041ff4:	00a00014 	movui	r2,32768
 3041ff8:	18800a1e 	bne	r3,r2,3042024 <Fat_FileRead+0xc4>
        nClusterSeq = Pos >> 15;
 3041ffc:	e0bff117 	ldw	r2,-60(fp)
 3042000:	1004d3fa 	srli	r2,r2,15
 3042004:	e0bff515 	stw	r2,-44(fp)
        Pos -= (f->ClusterSeq << 15);
 3042008:	e0bff917 	ldw	r2,-28(fp)
 304200c:	10800417 	ldw	r2,16(r2)
 3042010:	100493fa 	slli	r2,r2,15
 3042014:	e0fff117 	ldw	r3,-60(fp)
 3042018:	1885c83a 	sub	r2,r3,r2
 304201c:	e0bff115 	stw	r2,-60(fp)
 3042020:	00002506 	br	30420b8 <Fat_FileRead+0x158>
    }else if (BytesPerCluster == 16384){
 3042024:	e0bffb17 	ldw	r2,-20(fp)
 3042028:	10900018 	cmpnei	r2,r2,16384
 304202c:	10000a1e 	bne	r2,zero,3042058 <Fat_FileRead+0xf8>
        nClusterSeq = Pos >> 14;
 3042030:	e0bff117 	ldw	r2,-60(fp)
 3042034:	1004d3ba 	srli	r2,r2,14
 3042038:	e0bff515 	stw	r2,-44(fp)
        Pos -= (f->ClusterSeq << 14);
 304203c:	e0bff917 	ldw	r2,-28(fp)
 3042040:	10800417 	ldw	r2,16(r2)
 3042044:	100493ba 	slli	r2,r2,14
 3042048:	e0fff117 	ldw	r3,-60(fp)
 304204c:	1885c83a 	sub	r2,r3,r2
 3042050:	e0bff115 	stw	r2,-60(fp)
 3042054:	00001806 	br	30420b8 <Fat_FileRead+0x158>
    }else if (BytesPerCluster == 2048){
 3042058:	e0bffb17 	ldw	r2,-20(fp)
 304205c:	10820018 	cmpnei	r2,r2,2048
 3042060:	10000a1e 	bne	r2,zero,304208c <Fat_FileRead+0x12c>
        nClusterSeq = Pos >> 11;
 3042064:	e0bff117 	ldw	r2,-60(fp)
 3042068:	1004d2fa 	srli	r2,r2,11
 304206c:	e0bff515 	stw	r2,-44(fp)
        Pos -= (f->ClusterSeq << 11);
 3042070:	e0bff917 	ldw	r2,-28(fp)
 3042074:	10800417 	ldw	r2,16(r2)
 3042078:	100492fa 	slli	r2,r2,11
 304207c:	e0fff117 	ldw	r3,-60(fp)
 3042080:	1885c83a 	sub	r2,r3,r2
 3042084:	e0bff115 	stw	r2,-60(fp)
 3042088:	00000b06 	br	30420b8 <Fat_FileRead+0x158>
    }else{        
        nClusterSeq = Pos/BytesPerCluster;
 304208c:	e13ff117 	ldw	r4,-60(fp)
 3042090:	e17ffb17 	ldw	r5,-20(fp)
 3042094:	30484600 	call	3048460 <__udivsi3>
 3042098:	e0bff515 	stw	r2,-44(fp)
        Pos -= f->ClusterSeq*BytesPerCluster;
 304209c:	e0bff917 	ldw	r2,-28(fp)
 30420a0:	10c00417 	ldw	r3,16(r2)
 30420a4:	e0bffb17 	ldw	r2,-20(fp)
 30420a8:	1885383a 	mul	r2,r3,r2
 30420ac:	e0fff117 	ldw	r3,-60(fp)
 30420b0:	1885c83a 	sub	r2,r3,r2
 30420b4:	e0bff115 	stw	r2,-60(fp)
    }    
        
       
    Cluster = f->Cluster;
 30420b8:	e0bff917 	ldw	r2,-28(fp)
 30420bc:	10800317 	ldw	r2,12(r2)
 30420c0:	e0bff315 	stw	r2,-52(fp)
    if (nClusterSeq != f->ClusterSeq){
 30420c4:	e0bff917 	ldw	r2,-28(fp)
 30420c8:	10c00417 	ldw	r3,16(r2)
 30420cc:	e0bff517 	ldw	r2,-44(fp)
 30420d0:	18802326 	beq	r3,r2,3042160 <Fat_FileRead+0x200>
        Cluster = f->Cluster;  //11/20/2007, richard
 30420d4:	e0bff917 	ldw	r2,-28(fp)
 30420d8:	10800317 	ldw	r2,12(r2)
 30420dc:	e0bff315 	stw	r2,-52(fp)
        // move to first clustor for reading
        while (Pos >= BytesPerCluster && bSuccess){
 30420e0:	00001a06 	br	304214c <Fat_FileRead+0x1ec>
            // go to next cluster
            NextCluster = fatNextCluster(pVol, Cluster); 
 30420e4:	e13ffa17 	ldw	r4,-24(fp)
 30420e8:	e17ff317 	ldw	r5,-52(fp)
 30420ec:	30428cc0 	call	30428cc <fatNextCluster>
 30420f0:	e0bffc15 	stw	r2,-16(fp)
            if (NextCluster == 0){
 30420f4:	e0bffc17 	ldw	r2,-16(fp)
 30420f8:	1000061e 	bne	r2,zero,3042114 <Fat_FileRead+0x1b4>
                bSuccess = FALSE;
 30420fc:	e03ff715 	stw	zero,-36(fp)
                FAT_DEBUG(("[FAT] Fat_FileRead, no next Cluster, current Cluster=%d\r\n", Cluster));
 3042100:	0100c1f4 	movhi	r4,775
 3042104:	21220004 	addi	r4,r4,-30720
 3042108:	e17ff317 	ldw	r5,-52(fp)
 304210c:	3045e5c0 	call	3045e5c <myprintf>
 3042110:	00000206 	br	304211c <Fat_FileRead+0x1bc>
            }else{
                Cluster = NextCluster;
 3042114:	e0bffc17 	ldw	r2,-16(fp)
 3042118:	e0bff315 	stw	r2,-52(fp)
            }        
            Pos -= BytesPerCluster;
 304211c:	e0fff117 	ldw	r3,-60(fp)
 3042120:	e0bffb17 	ldw	r2,-20(fp)
 3042124:	1885c83a 	sub	r2,r3,r2
 3042128:	e0bff115 	stw	r2,-60(fp)
            f->Cluster = Cluster;
 304212c:	e0bff917 	ldw	r2,-28(fp)
 3042130:	e0fff317 	ldw	r3,-52(fp)
 3042134:	10c00315 	stw	r3,12(r2)
            f->ClusterSeq++; 
 3042138:	e0bff917 	ldw	r2,-28(fp)
 304213c:	10800417 	ldw	r2,16(r2)
 3042140:	10c00044 	addi	r3,r2,1
 3042144:	e0bff917 	ldw	r2,-28(fp)
 3042148:	10c00415 	stw	r3,16(r2)
       
    Cluster = f->Cluster;
    if (nClusterSeq != f->ClusterSeq){
        Cluster = f->Cluster;  //11/20/2007, richard
        // move to first clustor for reading
        while (Pos >= BytesPerCluster && bSuccess){
 304214c:	e0fff117 	ldw	r3,-60(fp)
 3042150:	e0bffb17 	ldw	r2,-20(fp)
 3042154:	18800236 	bltu	r3,r2,3042160 <Fat_FileRead+0x200>
 3042158:	e0bff717 	ldw	r2,-36(fp)
 304215c:	103fe11e 	bne	r2,zero,30420e4 <__alt_data_end+0xfffc20e4>
            f->ClusterSeq++; 
        }
    }            
    
    // reading
    while(nReadCount < nBufferSize && bSuccess){
 3042160:	00009206 	br	30423ac <Fat_FileRead+0x44c>
        if (pVol->BPB_SecPerCluster == 32)
 3042164:	e0bffa17 	ldw	r2,-24(fp)
 3042168:	10800717 	ldw	r2,28(r2)
 304216c:	10800818 	cmpnei	r2,r2,32
 3042170:	1000081e 	bne	r2,zero,3042194 <Fat_FileRead+0x234>
            PhysicalSecter = ((Cluster-2) << 5) + pVol->DataEntrySecter; // -2: FAT0 & FAT1 are reserved
 3042174:	e0bff317 	ldw	r2,-52(fp)
 3042178:	10bfff84 	addi	r2,r2,-2
 304217c:	1006917a 	slli	r3,r2,5
 3042180:	e0bffa17 	ldw	r2,-24(fp)
 3042184:	10800f17 	ldw	r2,60(r2)
 3042188:	1885883a 	add	r2,r3,r2
 304218c:	e0bff215 	stw	r2,-56(fp)
 3042190:	00001506 	br	30421e8 <Fat_FileRead+0x288>
        else if (pVol->BPB_SecPerCluster == 64)
 3042194:	e0bffa17 	ldw	r2,-24(fp)
 3042198:	10800717 	ldw	r2,28(r2)
 304219c:	10801018 	cmpnei	r2,r2,64
 30421a0:	1000081e 	bne	r2,zero,30421c4 <Fat_FileRead+0x264>
            PhysicalSecter = ((Cluster-2) << 6) + pVol->DataEntrySecter; // -2: FAT0 & FAT1 are reserved
 30421a4:	e0bff317 	ldw	r2,-52(fp)
 30421a8:	10bfff84 	addi	r2,r2,-2
 30421ac:	100691ba 	slli	r3,r2,6
 30421b0:	e0bffa17 	ldw	r2,-24(fp)
 30421b4:	10800f17 	ldw	r2,60(r2)
 30421b8:	1885883a 	add	r2,r3,r2
 30421bc:	e0bff215 	stw	r2,-56(fp)
 30421c0:	00000906 	br	30421e8 <Fat_FileRead+0x288>
        else
            PhysicalSecter = (Cluster-2)*pVol->BPB_SecPerCluster + pVol->DataEntrySecter; // -2: FAT0 & FAT1 are reserved
 30421c4:	e0bff317 	ldw	r2,-52(fp)
 30421c8:	10ffff84 	addi	r3,r2,-2
 30421cc:	e0bffa17 	ldw	r2,-24(fp)
 30421d0:	10800717 	ldw	r2,28(r2)
 30421d4:	1887383a 	mul	r3,r3,r2
 30421d8:	e0bffa17 	ldw	r2,-24(fp)
 30421dc:	10800f17 	ldw	r2,60(r2)
 30421e0:	1885883a 	add	r2,r3,r2
 30421e4:	e0bff215 	stw	r2,-56(fp)
        for(s=0;s<pVol->BPB_SecPerCluster && nReadCount < nBufferSize && bSuccess;s++){
 30421e8:	e03ff615 	stw	zero,-40(fp)
 30421ec:	00004e06 	br	3042328 <Fat_FileRead+0x3c8>
            if (Pos >= pVol->BPB_BytsPerSec){
 30421f0:	e0bffa17 	ldw	r2,-24(fp)
 30421f4:	10800617 	ldw	r2,24(r2)
 30421f8:	e0fff117 	ldw	r3,-60(fp)
 30421fc:	18800636 	bltu	r3,r2,3042218 <Fat_FileRead+0x2b8>
                Pos -= pVol->BPB_BytsPerSec;
 3042200:	e0bffa17 	ldw	r2,-24(fp)
 3042204:	10800617 	ldw	r2,24(r2)
 3042208:	e0fff117 	ldw	r3,-60(fp)
 304220c:	1885c83a 	sub	r2,r3,r2
 3042210:	e0bff115 	stw	r2,-60(fp)
 3042214:	00003e06 	br	3042310 <Fat_FileRead+0x3b0>
            }else{
                // read secter data
                bSuccess = fatReadSecter(pVol, PhysicalSecter);
 3042218:	e13ffa17 	ldw	r4,-24(fp)
 304221c:	e17ff217 	ldw	r5,-56(fp)
 3042220:	30437840 	call	3043784 <fatReadSecter>
 3042224:	e0bff715 	stw	r2,-36(fp)
                
                if (bSuccess){
 3042228:	e0bff717 	ldw	r2,-36(fp)
 304222c:	10003826 	beq	r2,zero,3042310 <Fat_FileRead+0x3b0>
                    // copy data to user buffer
                
                    int nCopyCount;
                    nCopyCount = pVol->BPB_BytsPerSec;
 3042230:	e0bffa17 	ldw	r2,-24(fp)
 3042234:	10800617 	ldw	r2,24(r2)
 3042238:	e0bff815 	stw	r2,-32(fp)
                    if (Pos)
 304223c:	e0bff117 	ldw	r2,-60(fp)
 3042240:	10000426 	beq	r2,zero,3042254 <Fat_FileRead+0x2f4>
                        nCopyCount -= Pos;
 3042244:	e0fff817 	ldw	r3,-32(fp)
 3042248:	e0bff117 	ldw	r2,-60(fp)
 304224c:	1885c83a 	sub	r2,r3,r2
 3042250:	e0bff815 	stw	r2,-32(fp)
                    if (nCopyCount > (nBufferSize-nReadCount))
 3042254:	e0bff817 	ldw	r2,-32(fp)
 3042258:	e13fff17 	ldw	r4,-4(fp)
 304225c:	e0fff417 	ldw	r3,-48(fp)
 3042260:	20c7c83a 	sub	r3,r4,r3
 3042264:	1880042e 	bgeu	r3,r2,3042278 <Fat_FileRead+0x318>
                        nCopyCount = nBufferSize-nReadCount;
 3042268:	e0ffff17 	ldw	r3,-4(fp)
 304226c:	e0bff417 	ldw	r2,-48(fp)
 3042270:	1885c83a 	sub	r2,r3,r2
 3042274:	e0bff815 	stw	r2,-32(fp)
                    if (nCopyCount == 512){
 3042278:	e0bff817 	ldw	r2,-32(fp)
 304227c:	10808018 	cmpnei	r2,r2,512
 3042280:	1000111e 	bne	r2,zero,30422c8 <Fat_FileRead+0x368>
                        memcpy((char *)pBuffer+nReadCount, pVol->Secter_Data, 512);
 3042284:	e0fffe17 	ldw	r3,-8(fp)
 3042288:	e0bff417 	ldw	r2,-48(fp)
 304228c:	1887883a 	add	r3,r3,r2
 3042290:	e0bffa17 	ldw	r2,-24(fp)
 3042294:	10801004 	addi	r2,r2,64
 3042298:	1809883a 	mov	r4,r3
 304229c:	100b883a 	mov	r5,r2
 30422a0:	01808004 	movi	r6,512
 30422a4:	304b7280 	call	304b728 <memcpy>
                        nReadCount += nCopyCount;
 30422a8:	e0bff817 	ldw	r2,-32(fp)
 30422ac:	e0fff417 	ldw	r3,-48(fp)
 30422b0:	1885883a 	add	r2,r3,r2
 30422b4:	e0bff415 	stw	r2,-48(fp)
                        if (Pos > 0)
 30422b8:	e0bff117 	ldw	r2,-60(fp)
 30422bc:	10001426 	beq	r2,zero,3042310 <Fat_FileRead+0x3b0>
                            Pos = 0;
 30422c0:	e03ff115 	stw	zero,-60(fp)
 30422c4:	00001206 	br	3042310 <Fat_FileRead+0x3b0>
                    }else{
                        memcpy((void *)((char *)pBuffer+nReadCount), pVol->Secter_Data+Pos,nCopyCount);
 30422c8:	e0fffe17 	ldw	r3,-8(fp)
 30422cc:	e0bff417 	ldw	r2,-48(fp)
 30422d0:	1889883a 	add	r4,r3,r2
 30422d4:	e0bff117 	ldw	r2,-60(fp)
 30422d8:	10801004 	addi	r2,r2,64
 30422dc:	e0fffa17 	ldw	r3,-24(fp)
 30422e0:	1887883a 	add	r3,r3,r2
 30422e4:	e0bff817 	ldw	r2,-32(fp)
 30422e8:	180b883a 	mov	r5,r3
 30422ec:	100d883a 	mov	r6,r2
 30422f0:	304b7280 	call	304b728 <memcpy>
                        nReadCount += nCopyCount;
 30422f4:	e0bff817 	ldw	r2,-32(fp)
 30422f8:	e0fff417 	ldw	r3,-48(fp)
 30422fc:	1885883a 	add	r2,r3,r2
 3042300:	e0bff415 	stw	r2,-48(fp)
                        if (Pos > 0)
 3042304:	e0bff117 	ldw	r2,-60(fp)
 3042308:	10000126 	beq	r2,zero,3042310 <Fat_FileRead+0x3b0>
                            Pos = 0;
 304230c:	e03ff115 	stw	zero,-60(fp)
                    }         
                }    // if bSuccess
                    
            }
            PhysicalSecter++;
 3042310:	e0bff217 	ldw	r2,-56(fp)
 3042314:	10800044 	addi	r2,r2,1
 3042318:	e0bff215 	stw	r2,-56(fp)
            PhysicalSecter = ((Cluster-2) << 5) + pVol->DataEntrySecter; // -2: FAT0 & FAT1 are reserved
        else if (pVol->BPB_SecPerCluster == 64)
            PhysicalSecter = ((Cluster-2) << 6) + pVol->DataEntrySecter; // -2: FAT0 & FAT1 are reserved
        else
            PhysicalSecter = (Cluster-2)*pVol->BPB_SecPerCluster + pVol->DataEntrySecter; // -2: FAT0 & FAT1 are reserved
        for(s=0;s<pVol->BPB_SecPerCluster && nReadCount < nBufferSize && bSuccess;s++){
 304231c:	e0bff617 	ldw	r2,-40(fp)
 3042320:	10800044 	addi	r2,r2,1
 3042324:	e0bff615 	stw	r2,-40(fp)
 3042328:	e0fff617 	ldw	r3,-40(fp)
 304232c:	e0bffa17 	ldw	r2,-24(fp)
 3042330:	10800717 	ldw	r2,28(r2)
 3042334:	1880052e 	bgeu	r3,r2,304234c <Fat_FileRead+0x3ec>
 3042338:	e0bfff17 	ldw	r2,-4(fp)
 304233c:	e0fff417 	ldw	r3,-48(fp)
 3042340:	1880022e 	bgeu	r3,r2,304234c <Fat_FileRead+0x3ec>
 3042344:	e0bff717 	ldw	r2,-36(fp)
 3042348:	103fa91e 	bne	r2,zero,30421f0 <__alt_data_end+0xfffc21f0>
            }
            PhysicalSecter++;
        }    
            
        // next cluster
        if (nReadCount < nBufferSize){
 304234c:	e0bfff17 	ldw	r2,-4(fp)
 3042350:	e0fff417 	ldw	r3,-48(fp)
 3042354:	1880152e 	bgeu	r3,r2,30423ac <Fat_FileRead+0x44c>
            NextCluster = fatNextCluster(pVol, Cluster); 
 3042358:	e13ffa17 	ldw	r4,-24(fp)
 304235c:	e17ff317 	ldw	r5,-52(fp)
 3042360:	30428cc0 	call	30428cc <fatNextCluster>
 3042364:	e0bffc15 	stw	r2,-16(fp)
            if (NextCluster == 0){
 3042368:	e0bffc17 	ldw	r2,-16(fp)
 304236c:	1000051e 	bne	r2,zero,3042384 <Fat_FileRead+0x424>
                bSuccess = FALSE;
 3042370:	e03ff715 	stw	zero,-36(fp)
                FAT_DEBUG(("[FAT] Fat_FileRead, no next cluster\r\n"));
 3042374:	0100c1f4 	movhi	r4,775
 3042378:	21220f04 	addi	r4,r4,-30660
 304237c:	3045e5c0 	call	3045e5c <myprintf>
 3042380:	00000206 	br	304238c <Fat_FileRead+0x42c>
            }else{
                Cluster = NextCluster;
 3042384:	e0bffc17 	ldw	r2,-16(fp)
 3042388:	e0bff315 	stw	r2,-52(fp)
            }    
            //    
            f->ClusterSeq++; 
 304238c:	e0bff917 	ldw	r2,-28(fp)
 3042390:	10800417 	ldw	r2,16(r2)
 3042394:	10c00044 	addi	r3,r2,1
 3042398:	e0bff917 	ldw	r2,-28(fp)
 304239c:	10c00415 	stw	r3,16(r2)
            f->Cluster = Cluster;
 30423a0:	e0bff917 	ldw	r2,-28(fp)
 30423a4:	e0fff317 	ldw	r3,-52(fp)
 30423a8:	10c00315 	stw	r3,12(r2)
            f->ClusterSeq++; 
        }
    }            
    
    // reading
    while(nReadCount < nBufferSize && bSuccess){
 30423ac:	e0bfff17 	ldw	r2,-4(fp)
 30423b0:	e0fff417 	ldw	r3,-48(fp)
 30423b4:	1880022e 	bgeu	r3,r2,30423c0 <Fat_FileRead+0x460>
 30423b8:	e0bff717 	ldw	r2,-36(fp)
 30423bc:	103f691e 	bne	r2,zero,3042164 <__alt_data_end+0xfffc2164>
            f->ClusterSeq++; 
            f->Cluster = Cluster;
        }                    
    }
    
    if (bSuccess){
 30423c0:	e0bff717 	ldw	r2,-36(fp)
 30423c4:	10000626 	beq	r2,zero,30423e0 <Fat_FileRead+0x480>
        f->SeekPos += nBufferSize;
 30423c8:	e0bff917 	ldw	r2,-28(fp)
 30423cc:	10c00217 	ldw	r3,8(r2)
 30423d0:	e0bfff17 	ldw	r2,-4(fp)
 30423d4:	1887883a 	add	r3,r3,r2
 30423d8:	e0bff917 	ldw	r2,-28(fp)
 30423dc:	10c00215 	stw	r3,8(r2)
    }        
        
    
    return bSuccess;
 30423e0:	e0bff717 	ldw	r2,-36(fp)
}
 30423e4:	e037883a 	mov	sp,fp
 30423e8:	dfc00117 	ldw	ra,4(sp)
 30423ec:	df000017 	ldw	fp,0(sp)
 30423f0:	dec00204 	addi	sp,sp,8
 30423f4:	f800283a 	ret

030423f8 <Fat_FileSeek>:


bool Fat_FileSeek(FAT_FILE_HANDLE hFileHandle, const FAT_SEEK_POS SeekPos, const int nOffset){
 30423f8:	defff904 	addi	sp,sp,-28
 30423fc:	df000615 	stw	fp,24(sp)
 3042400:	df000604 	addi	fp,sp,24
 3042404:	e13ffd15 	stw	r4,-12(fp)
 3042408:	e17ffe15 	stw	r5,-8(fp)
 304240c:	e1bfff15 	stw	r6,-4(fp)
    FAT_FILE_INFO *f = (FAT_FILE_INFO *)hFileHandle;
 3042410:	e0bffd17 	ldw	r2,-12(fp)
 3042414:	e0bffb15 	stw	r2,-20(fp)
    VOLUME_INFO *pVol;
    bool bSuccess= TRUE;
 3042418:	00800044 	movi	r2,1
 304241c:	e0bffa15 	stw	r2,-24(fp)

    if (!f || !f->Fat)
 3042420:	e0bffb17 	ldw	r2,-20(fp)
 3042424:	10000326 	beq	r2,zero,3042434 <Fat_FileSeek+0x3c>
 3042428:	e0bffb17 	ldw	r2,-20(fp)
 304242c:	10804f17 	ldw	r2,316(r2)
 3042430:	1000021e 	bne	r2,zero,304243c <Fat_FileSeek+0x44>
        return FALSE;
 3042434:	0005883a 	mov	r2,zero
 3042438:	00002b06 	br	30424e8 <Fat_FileSeek+0xf0>
    pVol = (VOLUME_INFO *)f->Fat;        
 304243c:	e0bffb17 	ldw	r2,-20(fp)
 3042440:	10804f17 	ldw	r2,316(r2)
 3042444:	e0bffc15 	stw	r2,-16(fp)
    
    if (!f->IsOpened)
 3042448:	e0bffb17 	ldw	r2,-20(fp)
 304244c:	10800017 	ldw	r2,0(r2)
 3042450:	1000021e 	bne	r2,zero,304245c <Fat_FileSeek+0x64>
        return FALSE;
 3042454:	0005883a 	mov	r2,zero
 3042458:	00002306 	br	30424e8 <Fat_FileSeek+0xf0>
        
    switch(SeekPos){
 304245c:	e0bffe17 	ldw	r2,-8(fp)
 3042460:	10c00060 	cmpeqi	r3,r2,1
 3042464:	1800081e 	bne	r3,zero,3042488 <Fat_FileSeek+0x90>
 3042468:	0080032e 	bgeu	zero,r2,3042478 <Fat_FileSeek+0x80>
 304246c:	108000a0 	cmpeqi	r2,r2,2
 3042470:	10000c1e 	bne	r2,zero,30424a4 <Fat_FileSeek+0xac>
 3042474:	00001206 	br	30424c0 <Fat_FileSeek+0xc8>
        case FILE_SEEK_BEGIN: 
            f->SeekPos = nOffset; 
 3042478:	e0ffff17 	ldw	r3,-4(fp)
 304247c:	e0bffb17 	ldw	r2,-20(fp)
 3042480:	10c00215 	stw	r3,8(r2)
            break;
 3042484:	00001006 	br	30424c8 <Fat_FileSeek+0xd0>
        case FILE_SEEK_CURRENT: 
            f->SeekPos += nOffset; 
 3042488:	e0bffb17 	ldw	r2,-20(fp)
 304248c:	10c00217 	ldw	r3,8(r2)
 3042490:	e0bfff17 	ldw	r2,-4(fp)
 3042494:	1887883a 	add	r3,r3,r2
 3042498:	e0bffb17 	ldw	r2,-20(fp)
 304249c:	10c00215 	stw	r3,8(r2)
            break;
 30424a0:	00000906 	br	30424c8 <Fat_FileSeek+0xd0>
        case FILE_SEEK_END: 
            f->SeekPos = f->Directory.FileSize+nOffset; 
 30424a4:	e0bffb17 	ldw	r2,-20(fp)
 30424a8:	10c04e17 	ldw	r3,312(r2)
 30424ac:	e0bfff17 	ldw	r2,-4(fp)
 30424b0:	1887883a 	add	r3,r3,r2
 30424b4:	e0bffb17 	ldw	r2,-20(fp)
 30424b8:	10c00215 	stw	r3,8(r2)
            break;
 30424bc:	00000206 	br	30424c8 <Fat_FileSeek+0xd0>
        default:
            bSuccess = FALSE;
 30424c0:	e03ffa15 	stw	zero,-24(fp)
            break;    
 30424c4:	0001883a 	nop
              
    }
    f->Cluster = f->Directory.FirstLogicalCluster;
 30424c8:	e0bffb17 	ldw	r2,-20(fp)
 30424cc:	10804d8b 	ldhu	r2,310(r2)
 30424d0:	10ffffcc 	andi	r3,r2,65535
 30424d4:	e0bffb17 	ldw	r2,-20(fp)
 30424d8:	10c00315 	stw	r3,12(r2)
    f->ClusterSeq = 0;
 30424dc:	e0bffb17 	ldw	r2,-20(fp)
 30424e0:	10000415 	stw	zero,16(r2)
    
    return bSuccess;
 30424e4:	e0bffa17 	ldw	r2,-24(fp)
    
}
 30424e8:	e037883a 	mov	sp,fp
 30424ec:	df000017 	ldw	fp,0(sp)
 30424f0:	dec00104 	addi	sp,sp,4
 30424f4:	f800283a 	ret

030424f8 <Fat_FileClose>:

void Fat_FileClose(FAT_FILE_HANDLE hFileHandle){
 30424f8:	defffc04 	addi	sp,sp,-16
 30424fc:	dfc00315 	stw	ra,12(sp)
 3042500:	df000215 	stw	fp,8(sp)
 3042504:	df000204 	addi	fp,sp,8
 3042508:	e13fff15 	stw	r4,-4(fp)
    FAT_FILE_INFO *f = (FAT_FILE_INFO *)hFileHandle;
 304250c:	e0bfff17 	ldw	r2,-4(fp)
 3042510:	e0bffe15 	stw	r2,-8(fp)
    if (!f)
 3042514:	e0bffe17 	ldw	r2,-8(fp)
 3042518:	1000011e 	bne	r2,zero,3042520 <Fat_FileClose+0x28>
        return;
 304251c:	00000206 	br	3042528 <Fat_FileClose+0x30>
        
    free(f);        
 3042520:	e13ffe17 	ldw	r4,-8(fp)
 3042524:	304af6c0 	call	304af6c <free>
}
 3042528:	e037883a 	mov	sp,fp
 304252c:	dfc00117 	ldw	ra,4(sp)
 3042530:	df000017 	ldw	fp,0(sp)
 3042534:	dec00204 	addi	sp,sp,8
 3042538:	f800283a 	ret

0304253c <Fat_SpeedTest>:



float Fat_SpeedTest(FAT_HANDLE hFat, alt_u32 TestDurInMs){
 304253c:	deff7304 	addi	sp,sp,-564
 3042540:	dfc08c15 	stw	ra,560(sp)
 3042544:	df008b15 	stw	fp,556(sp)
 3042548:	dc008a15 	stw	r16,552(sp)
 304254c:	df008b04 	addi	fp,sp,556
 3042550:	e13ffd15 	stw	r4,-12(fp)
 3042554:	e17ffe15 	stw	r5,-8(fp)
    bool bSuccess = TRUE;
 3042558:	00800044 	movi	r2,1
 304255c:	e0bf7515 	stw	r2,-556(fp)
    alt_u32 time_start, time_finish, time_elapsed, TotalReadBytes=0;
 3042560:	e03f7615 	stw	zero,-552(fp)
    int nSecter = 0;
 3042564:	e03f7715 	stw	zero,-548(fp)
    float fMegaBytePerSec = 0;
 3042568:	e03f7815 	stw	zero,-544(fp)
    char szBlock[512];
    VOLUME_INFO *pVol = (VOLUME_INFO *)hFat;
 304256c:	e0bffd17 	ldw	r2,-12(fp)
 3042570:	e0bf7915 	stw	r2,-540(fp)
    if (!pVol)
 3042574:	e0bf7917 	ldw	r2,-540(fp)
 3042578:	1000021e 	bne	r2,zero,3042584 <Fat_SpeedTest+0x48>
        return 0;
 304257c:	0005883a 	mov	r2,zero
 3042580:	00006b06 	br	3042730 <Fat_SpeedTest+0x1f4>
 * alt_nticks() returns the elapsed number of system clock ticks since reset.
 */

static ALT_INLINE alt_u32 ALT_ALWAYS_INLINE alt_nticks (void)
{
  return _alt_nticks;
 3042584:	0080c1f4 	movhi	r2,775
 3042588:	10b4fe04 	addi	r2,r2,-11272
 304258c:	10800017 	ldw	r2,0(r2)
    time_start = alt_nticks();
 3042590:	e0bf7a15 	stw	r2,-536(fp)
 3042594:	0080c1f4 	movhi	r2,775
 3042598:	10b4fe04 	addi	r2,r2,-11272
 304259c:	14000017 	ldw	r16,0(r2)
    time_finish = alt_nticks() + TestDurInMs * 1000 / alt_ticks_per_second();
 30425a0:	e0bffe17 	ldw	r2,-8(fp)
 30425a4:	10c0fa24 	muli	r3,r2,1000
 * Obtain the system clock rate in ticks/s. 
 */

static ALT_INLINE alt_u32 ALT_ALWAYS_INLINE alt_ticks_per_second (void)
{
  return _alt_tick_rate;
 30425a8:	0080c1f4 	movhi	r2,775
 30425ac:	10b4fd04 	addi	r2,r2,-11276
 30425b0:	10800017 	ldw	r2,0(r2)
 30425b4:	1809883a 	mov	r4,r3
 30425b8:	100b883a 	mov	r5,r2
 30425bc:	30484600 	call	3048460 <__udivsi3>
 30425c0:	8085883a 	add	r2,r16,r2
 30425c4:	e0bf7b15 	stw	r2,-532(fp)
    while(alt_nticks() < time_finish && bSuccess){
 30425c8:	00000f06 	br	3042608 <Fat_SpeedTest+0xcc>
        bSuccess = pVol->ReadBlock512(pVol->DiskHandle, nSecter, szBlock);
 30425cc:	e0bf7917 	ldw	r2,-540(fp)
 30425d0:	10800117 	ldw	r2,4(r2)
 30425d4:	e0ff7917 	ldw	r3,-540(fp)
 30425d8:	19000017 	ldw	r4,0(r3)
 30425dc:	e17f7717 	ldw	r5,-548(fp)
 30425e0:	e0ff7d04 	addi	r3,fp,-524
 30425e4:	180d883a 	mov	r6,r3
 30425e8:	103ee83a 	callr	r2
 30425ec:	e0bf7515 	stw	r2,-556(fp)
        nSecter++;
 30425f0:	e0bf7717 	ldw	r2,-548(fp)
 30425f4:	10800044 	addi	r2,r2,1
 30425f8:	e0bf7715 	stw	r2,-548(fp)
        TotalReadBytes += sizeof(szBlock);
 30425fc:	e0bf7617 	ldw	r2,-552(fp)
 3042600:	10808004 	addi	r2,r2,512
 3042604:	e0bf7615 	stw	r2,-552(fp)
 * alt_nticks() returns the elapsed number of system clock ticks since reset.
 */

static ALT_INLINE alt_u32 ALT_ALWAYS_INLINE alt_nticks (void)
{
  return _alt_nticks;
 3042608:	0080c1f4 	movhi	r2,775
 304260c:	10b4fe04 	addi	r2,r2,-11272
 3042610:	10c00017 	ldw	r3,0(r2)
    VOLUME_INFO *pVol = (VOLUME_INFO *)hFat;
    if (!pVol)
        return 0;
    time_start = alt_nticks();
    time_finish = alt_nticks() + TestDurInMs * 1000 / alt_ticks_per_second();
    while(alt_nticks() < time_finish && bSuccess){
 3042614:	e0bf7b17 	ldw	r2,-532(fp)
 3042618:	1880022e 	bgeu	r3,r2,3042624 <Fat_SpeedTest+0xe8>
 304261c:	e0bf7517 	ldw	r2,-556(fp)
 3042620:	103fea1e 	bne	r2,zero,30425cc <__alt_data_end+0xfffc25cc>
        bSuccess = pVol->ReadBlock512(pVol->DiskHandle, nSecter, szBlock);
        nSecter++;
        TotalReadBytes += sizeof(szBlock);
        
    }        
    if (bSuccess){
 3042624:	e0bf7517 	ldw	r2,-556(fp)
 3042628:	10003726 	beq	r2,zero,3042708 <Fat_SpeedTest+0x1cc>
 304262c:	0080c1f4 	movhi	r2,775
 3042630:	10b4fe04 	addi	r2,r2,-11272
 3042634:	10c00017 	ldw	r3,0(r2)
        time_elapsed = alt_nticks() - time_start;
 3042638:	e0bf7a17 	ldw	r2,-536(fp)
 304263c:	1885c83a 	sub	r2,r3,r2
 3042640:	e0bf7c15 	stw	r2,-528(fp)
        fMegaBytePerSec = (float)TotalReadBytes * (float)alt_ticks_per_second() / (float)time_elapsed / 1024.0 / 1024.0;
 3042644:	e13f7617 	ldw	r4,-552(fp)
 3042648:	3048ce40 	call	3048ce4 <__floatunsisf>
 304264c:	1021883a 	mov	r16,r2
 * Obtain the system clock rate in ticks/s. 
 */

static ALT_INLINE alt_u32 ALT_ALWAYS_INLINE alt_ticks_per_second (void)
{
  return _alt_tick_rate;
 3042650:	0080c1f4 	movhi	r2,775
 3042654:	10b4fd04 	addi	r2,r2,-11276
 3042658:	10800017 	ldw	r2,0(r2)
 304265c:	1009883a 	mov	r4,r2
 3042660:	3048ce40 	call	3048ce4 <__floatunsisf>
 3042664:	1007883a 	mov	r3,r2
 3042668:	8009883a 	mov	r4,r16
 304266c:	180b883a 	mov	r5,r3
 3042670:	30488c00 	call	30488c0 <__mulsf3>
 3042674:	1007883a 	mov	r3,r2
 3042678:	1821883a 	mov	r16,r3
 304267c:	e13f7c17 	ldw	r4,-528(fp)
 3042680:	3048ce40 	call	3048ce4 <__floatunsisf>
 3042684:	1007883a 	mov	r3,r2
 3042688:	8009883a 	mov	r4,r16
 304268c:	180b883a 	mov	r5,r3
 3042690:	30484700 	call	3048470 <__divsf3>
 3042694:	1007883a 	mov	r3,r2
 3042698:	1805883a 	mov	r2,r3
 304269c:	1009883a 	mov	r4,r2
 30426a0:	30496c00 	call	30496c0 <__extendsfdf2>
 30426a4:	100b883a 	mov	r5,r2
 30426a8:	180d883a 	mov	r6,r3
 30426ac:	2809883a 	mov	r4,r5
 30426b0:	300b883a 	mov	r5,r6
 30426b4:	000d883a 	mov	r6,zero
 30426b8:	01d02434 	movhi	r7,16528
 30426bc:	3048df40 	call	3048df4 <__divdf3>
 30426c0:	1009883a 	mov	r4,r2
 30426c4:	180b883a 	mov	r5,r3
 30426c8:	2005883a 	mov	r2,r4
 30426cc:	2807883a 	mov	r3,r5
 30426d0:	1009883a 	mov	r4,r2
 30426d4:	180b883a 	mov	r5,r3
 30426d8:	000d883a 	mov	r6,zero
 30426dc:	01d02434 	movhi	r7,16528
 30426e0:	3048df40 	call	3048df4 <__divdf3>
 30426e4:	1009883a 	mov	r4,r2
 30426e8:	180b883a 	mov	r5,r3
 30426ec:	2005883a 	mov	r2,r4
 30426f0:	2807883a 	mov	r3,r5
 30426f4:	1009883a 	mov	r4,r2
 30426f8:	180b883a 	mov	r5,r3
 30426fc:	30497d00 	call	30497d0 <__truncdfsf2>
 3042700:	1007883a 	mov	r3,r2
 3042704:	e0ff7815 	stw	r3,-544(fp)
    } 
    
    printf("\n--------speed:%f---------\n",fMegaBytePerSec);       
 3042708:	e13f7817 	ldw	r4,-544(fp)
 304270c:	30496c00 	call	30496c0 <__extendsfdf2>
 3042710:	100d883a 	mov	r6,r2
 3042714:	180f883a 	mov	r7,r3
 3042718:	0100c1f4 	movhi	r4,775
 304271c:	21221904 	addi	r4,r4,-30620
 3042720:	300b883a 	mov	r5,r6
 3042724:	380d883a 	mov	r6,r7
 3042728:	304ba0c0 	call	304ba0c <printf>
    return fMegaBytePerSec;
 304272c:	e0bf7817 	ldw	r2,-544(fp)
 3042730:	1007883a 	mov	r3,r2
    
   
}
 3042734:	1805883a 	mov	r2,r3
 3042738:	e6ffff04 	addi	sp,fp,-4
 304273c:	dfc00217 	ldw	ra,8(sp)
 3042740:	df000117 	ldw	fp,4(sp)
 3042744:	dc000017 	ldw	r16,0(sp)
 3042748:	dec00304 	addi	sp,sp,12
 304274c:	f800283a 	ret

03042750 <fat16ClusterType>:
//extern VOLUME_INFO gVolumeInfo;




CLUSTER_TYPE fat16ClusterType(alt_u32 Fat){
 3042750:	defffd04 	addi	sp,sp,-12
 3042754:	df000215 	stw	fp,8(sp)
 3042758:	df000204 	addi	fp,sp,8
 304275c:	e13fff15 	stw	r4,-4(fp)
    CLUSTER_TYPE Type;
    Fat = Fat & 0xFFFF; // 16 bits
 3042760:	e0bfff17 	ldw	r2,-4(fp)
 3042764:	10bfffcc 	andi	r2,r2,65535
 3042768:	e0bfff15 	stw	r2,-4(fp)
    
    if (Fat > 0 && Fat < 0xFFF0)
 304276c:	e0bfff17 	ldw	r2,-4(fp)
 3042770:	10000626 	beq	r2,zero,304278c <fat16ClusterType+0x3c>
 3042774:	e0bfff17 	ldw	r2,-4(fp)
 3042778:	10bffc28 	cmpgeui	r2,r2,65520
 304277c:	1000031e 	bne	r2,zero,304278c <fat16ClusterType+0x3c>
        Type = CLUSTER_NEXT_INFILE;
 3042780:	00800104 	movi	r2,4
 3042784:	e0bffe15 	stw	r2,-8(fp)
 3042788:	00001806 	br	30427ec <fat16ClusterType+0x9c>
    else if (Fat >= 0xFFF8) // && Fat <= (unsigned short)0xFFFF)
 304278c:	e0bfff17 	ldw	r2,-4(fp)
 3042790:	10bffe30 	cmpltui	r2,r2,65528
 3042794:	1000031e 	bne	r2,zero,30427a4 <fat16ClusterType+0x54>
        Type = CLUSTER_LAST_INFILE;
 3042798:	008000c4 	movi	r2,3
 304279c:	e0bffe15 	stw	r2,-8(fp)
 30427a0:	00001206 	br	30427ec <fat16ClusterType+0x9c>
    else if (Fat == (alt_u16)0x00)
 30427a4:	e0bfff17 	ldw	r2,-4(fp)
 30427a8:	1000021e 	bne	r2,zero,30427b4 <fat16ClusterType+0x64>
        Type = CLUSTER_UNUSED;
 30427ac:	e03ffe15 	stw	zero,-8(fp)
 30427b0:	00000e06 	br	30427ec <fat16ClusterType+0x9c>
    else if (Fat >= 0xFFF0 && Fat <= 0xFFF6)
 30427b4:	e0bfff17 	ldw	r2,-4(fp)
 30427b8:	10bffc30 	cmpltui	r2,r2,65520
 30427bc:	1000061e 	bne	r2,zero,30427d8 <fat16ClusterType+0x88>
 30427c0:	e0bfff17 	ldw	r2,-4(fp)
 30427c4:	10bffde8 	cmpgeui	r2,r2,65527
 30427c8:	1000031e 	bne	r2,zero,30427d8 <fat16ClusterType+0x88>
        Type = CLUSTER_RESERVED;
 30427cc:	00800044 	movi	r2,1
 30427d0:	e0bffe15 	stw	r2,-8(fp)
 30427d4:	00000506 	br	30427ec <fat16ClusterType+0x9c>
    else if (Fat == 0xFFF7)
 30427d8:	e0ffff17 	ldw	r3,-4(fp)
 30427dc:	00bffdd4 	movui	r2,65527
 30427e0:	1880021e 	bne	r3,r2,30427ec <fat16ClusterType+0x9c>
        Type = CLUSTER_BAD;
 30427e4:	00800084 	movi	r2,2
 30427e8:	e0bffe15 	stw	r2,-8(fp)
        
    return Type;        
 30427ec:	e0bffe17 	ldw	r2,-8(fp)
         
}
 30427f0:	e037883a 	mov	sp,fp
 30427f4:	df000017 	ldw	fp,0(sp)
 30427f8:	dec00104 	addi	sp,sp,4
 30427fc:	f800283a 	ret

03042800 <fat32ClusterType>:

CLUSTER_TYPE fat32ClusterType(alt_u32 Fat){
 3042800:	defffd04 	addi	sp,sp,-12
 3042804:	df000215 	stw	fp,8(sp)
 3042808:	df000204 	addi	fp,sp,8
 304280c:	e13fff15 	stw	r4,-4(fp)
    CLUSTER_TYPE Type;
    Fat = Fat & 0xFFFFFFF; // 28 bits
 3042810:	e0ffff17 	ldw	r3,-4(fp)
 3042814:	00840034 	movhi	r2,4096
 3042818:	10bfffc4 	addi	r2,r2,-1
 304281c:	1884703a 	and	r2,r3,r2
 3042820:	e0bfff15 	stw	r2,-4(fp)
    
    if (Fat > 0 && Fat < 0xFFFFFF0)
 3042824:	e0bfff17 	ldw	r2,-4(fp)
 3042828:	10000726 	beq	r2,zero,3042848 <fat32ClusterType+0x48>
 304282c:	e0ffff17 	ldw	r3,-4(fp)
 3042830:	00840034 	movhi	r2,4096
 3042834:	10bffbc4 	addi	r2,r2,-17
 3042838:	10c00336 	bltu	r2,r3,3042848 <fat32ClusterType+0x48>
        Type = CLUSTER_NEXT_INFILE;
 304283c:	00800104 	movi	r2,4
 3042840:	e0bffe15 	stw	r2,-8(fp)
 3042844:	00001c06 	br	30428b8 <fat32ClusterType+0xb8>
    else if (Fat >= 0xFFFFFF8) // && Fat <= (unsigned short)0xFFFF)
 3042848:	e0ffff17 	ldw	r3,-4(fp)
 304284c:	00840034 	movhi	r2,4096
 3042850:	10bffdc4 	addi	r2,r2,-9
 3042854:	10c0032e 	bgeu	r2,r3,3042864 <fat32ClusterType+0x64>
        Type = CLUSTER_LAST_INFILE;
 3042858:	008000c4 	movi	r2,3
 304285c:	e0bffe15 	stw	r2,-8(fp)
 3042860:	00001506 	br	30428b8 <fat32ClusterType+0xb8>
    else if (Fat == (alt_u32)0x00)
 3042864:	e0bfff17 	ldw	r2,-4(fp)
 3042868:	1000021e 	bne	r2,zero,3042874 <fat32ClusterType+0x74>
        Type = CLUSTER_UNUSED;
 304286c:	e03ffe15 	stw	zero,-8(fp)
 3042870:	00001106 	br	30428b8 <fat32ClusterType+0xb8>
    else if (Fat >= 0xFFFFFF0 && Fat <= 0xFFFFFF6)
 3042874:	e0ffff17 	ldw	r3,-4(fp)
 3042878:	00840034 	movhi	r2,4096
 304287c:	10bffbc4 	addi	r2,r2,-17
 3042880:	10c0072e 	bgeu	r2,r3,30428a0 <fat32ClusterType+0xa0>
 3042884:	e0ffff17 	ldw	r3,-4(fp)
 3042888:	00840034 	movhi	r2,4096
 304288c:	10bffd84 	addi	r2,r2,-10
 3042890:	10c00336 	bltu	r2,r3,30428a0 <fat32ClusterType+0xa0>
        Type = CLUSTER_RESERVED;
 3042894:	00800044 	movi	r2,1
 3042898:	e0bffe15 	stw	r2,-8(fp)
 304289c:	00000606 	br	30428b8 <fat32ClusterType+0xb8>
    else if (Fat == 0xFFFFFF7)
 30428a0:	e0ffff17 	ldw	r3,-4(fp)
 30428a4:	00840034 	movhi	r2,4096
 30428a8:	10bffdc4 	addi	r2,r2,-9
 30428ac:	1880021e 	bne	r3,r2,30428b8 <fat32ClusterType+0xb8>
        Type = CLUSTER_BAD;
 30428b0:	00800084 	movi	r2,2
 30428b4:	e0bffe15 	stw	r2,-8(fp)
        
    return Type;        
 30428b8:	e0bffe17 	ldw	r2,-8(fp)
         
}
 30428bc:	e037883a 	mov	sp,fp
 30428c0:	df000017 	ldw	fp,0(sp)
 30428c4:	dec00104 	addi	sp,sp,4
 30428c8:	f800283a 	ret

030428cc <fatNextCluster>:

alt_u32 fatNextCluster(VOLUME_INFO *pVol, alt_u32 ThisCluster){
 30428cc:	defff604 	addi	sp,sp,-40
 30428d0:	dfc00915 	stw	ra,36(sp)
 30428d4:	df000815 	stw	fp,32(sp)
 30428d8:	dc000715 	stw	r16,28(sp)
 30428dc:	df000804 	addi	fp,sp,32
 30428e0:	e13ffd15 	stw	r4,-12(fp)
 30428e4:	e17ffe15 	stw	r5,-8(fp)
    if (ClusterType != CLUSTER_NEXT_INFILE && ClusterType != CLUSTER_LAST_INFILE){
        NextCluster = 0;  // invalid cluster
    }        
#else
    alt_32 nFatEntryPerSecter;
    const alt_32 nFatEntrySize = (pVol->Partition_Type == PARTITION_FAT32)?4:2; // 2 byte for FAT16
 30428e8:	e0bffd17 	ldw	r2,-12(fp)
 30428ec:	10800317 	ldw	r2,12(r2)
 30428f0:	108002d8 	cmpnei	r2,r2,11
 30428f4:	1000021e 	bne	r2,zero,3042900 <fatNextCluster+0x34>
 30428f8:	00800104 	movi	r2,4
 30428fc:	00000106 	br	3042904 <fatNextCluster+0x38>
 3042900:	00800084 	movi	r2,2
 3042904:	e0bffa15 	stw	r2,-24(fp)
    alt_u32 Secter;
   // char szBlock[512];
    nFatEntryPerSecter = pVol->BPB_BytsPerSec/nFatEntrySize; 
 3042908:	e0bffd17 	ldw	r2,-12(fp)
 304290c:	10c00617 	ldw	r3,24(r2)
 3042910:	e0bffa17 	ldw	r2,-24(fp)
 3042914:	1809883a 	mov	r4,r3
 3042918:	100b883a 	mov	r5,r2
 304291c:	30484600 	call	3048460 <__udivsi3>
 3042920:	e0bffb15 	stw	r2,-20(fp)
    Secter = pVol->FatEntrySecter + (ThisCluster*nFatEntrySize)/pVol->BPB_BytsPerSec;
 3042924:	e0bffd17 	ldw	r2,-12(fp)
 3042928:	14000d17 	ldw	r16,52(r2)
 304292c:	e0fffa17 	ldw	r3,-24(fp)
 3042930:	e0bffe17 	ldw	r2,-8(fp)
 3042934:	1887383a 	mul	r3,r3,r2
 3042938:	e0bffd17 	ldw	r2,-12(fp)
 304293c:	10800617 	ldw	r2,24(r2)
 3042940:	1809883a 	mov	r4,r3
 3042944:	100b883a 	mov	r5,r2
 3042948:	30484600 	call	3048460 <__udivsi3>
 304294c:	8085883a 	add	r2,r16,r2
 3042950:	e0bffc15 	stw	r2,-16(fp)
    //if (pVol->ReadBlock512(pVol->DiskHandle, Secter,szBlock)){
    if (fatReadSecter(pVol, Secter)){
 3042954:	e13ffd17 	ldw	r4,-12(fp)
 3042958:	e17ffc17 	ldw	r5,-16(fp)
 304295c:	30437840 	call	3043784 <fatReadSecter>
 3042960:	10002d26 	beq	r2,zero,3042a18 <fatNextCluster+0x14c>
        if (pVol->Partition_Type == PARTITION_FAT32){
 3042964:	e0bffd17 	ldw	r2,-12(fp)
 3042968:	10800317 	ldw	r2,12(r2)
 304296c:	108002d8 	cmpnei	r2,r2,11
 3042970:	1000111e 	bne	r2,zero,30429b8 <fatNextCluster+0xec>
            NextCluster = *(alt_u32*)(pVol->Secter_Data + (ThisCluster%nFatEntryPerSecter)*nFatEntrySize); 
 3042974:	e0bffb17 	ldw	r2,-20(fp)
 3042978:	e0fffe17 	ldw	r3,-8(fp)
 304297c:	1809883a 	mov	r4,r3
 3042980:	100b883a 	mov	r5,r2
 3042984:	30484680 	call	3048468 <__umodsi3>
 3042988:	1007883a 	mov	r3,r2
 304298c:	e0bffa17 	ldw	r2,-24(fp)
 3042990:	1885383a 	mul	r2,r3,r2
 3042994:	10801004 	addi	r2,r2,64
 3042998:	e0fffd17 	ldw	r3,-12(fp)
 304299c:	1885883a 	add	r2,r3,r2
 30429a0:	10800017 	ldw	r2,0(r2)
 30429a4:	e0bff915 	stw	r2,-28(fp)
            ClusterType = fat32ClusterType(NextCluster);
 30429a8:	e13ff917 	ldw	r4,-28(fp)
 30429ac:	30428000 	call	3042800 <fat32ClusterType>
 30429b0:	e0bff815 	stw	r2,-32(fp)
 30429b4:	00001106 	br	30429fc <fatNextCluster+0x130>
        }else{
            NextCluster = *(alt_u16 *)(pVol->Secter_Data + (ThisCluster%nFatEntryPerSecter)*nFatEntrySize); 
 30429b8:	e0bffb17 	ldw	r2,-20(fp)
 30429bc:	e0fffe17 	ldw	r3,-8(fp)
 30429c0:	1809883a 	mov	r4,r3
 30429c4:	100b883a 	mov	r5,r2
 30429c8:	30484680 	call	3048468 <__umodsi3>
 30429cc:	1007883a 	mov	r3,r2
 30429d0:	e0bffa17 	ldw	r2,-24(fp)
 30429d4:	1885383a 	mul	r2,r3,r2
 30429d8:	10801004 	addi	r2,r2,64
 30429dc:	e0fffd17 	ldw	r3,-12(fp)
 30429e0:	1885883a 	add	r2,r3,r2
 30429e4:	1080000b 	ldhu	r2,0(r2)
 30429e8:	10bfffcc 	andi	r2,r2,65535
 30429ec:	e0bff915 	stw	r2,-28(fp)
            ClusterType = fat16ClusterType(NextCluster);
 30429f0:	e13ff917 	ldw	r4,-28(fp)
 30429f4:	30427500 	call	3042750 <fat16ClusterType>
 30429f8:	e0bff815 	stw	r2,-32(fp)
        }    
        if (ClusterType != CLUSTER_NEXT_INFILE && ClusterType != CLUSTER_LAST_INFILE)
 30429fc:	e0bff817 	ldw	r2,-32(fp)
 3042a00:	10800120 	cmpeqi	r2,r2,4
 3042a04:	1000041e 	bne	r2,zero,3042a18 <fatNextCluster+0x14c>
 3042a08:	e0bff817 	ldw	r2,-32(fp)
 3042a0c:	108000e0 	cmpeqi	r2,r2,3
 3042a10:	1000011e 	bne	r2,zero,3042a18 <fatNextCluster+0x14c>
            NextCluster = 0;  // invalid cluster
 3042a14:	e03ff915 	stw	zero,-28(fp)
    }                
    
    
    return NextCluster;
 3042a18:	e0bff917 	ldw	r2,-28(fp)

#endif    
    
    return NextCluster;
}
 3042a1c:	e6ffff04 	addi	sp,fp,-4
 3042a20:	dfc00217 	ldw	ra,8(sp)
 3042a24:	df000117 	ldw	fp,4(sp)
 3042a28:	dc000017 	ldw	r16,0(sp)
 3042a2c:	dec00304 	addi	sp,sp,12
 3042a30:	f800283a 	ret

03042a34 <fatFindUnusedCluster>:

alt_u32 fatFindUnusedCluster(VOLUME_INFO *pVol){
 3042a34:	defff304 	addi	sp,sp,-52
 3042a38:	dfc00c15 	stw	ra,48(sp)
 3042a3c:	df000b15 	stw	fp,44(sp)
 3042a40:	dc000a15 	stw	r16,40(sp)
 3042a44:	df000b04 	addi	fp,sp,44
 3042a48:	e13ffe15 	stw	r4,-8(fp)
    CLUSTER_TYPE ClusterType;
    alt_u32 UnusedCluster=-1, ThisCluster = 2, ClusterEntryValue;
 3042a4c:	00bfffc4 	movi	r2,-1
 3042a50:	e0bff615 	stw	r2,-40(fp)
 3042a54:	00800084 	movi	r2,2
 3042a58:	e0bff715 	stw	r2,-36(fp)
    void *pFatEntry;

    const alt_32 nFatEntrySize = (pVol->Partition_Type == PARTITION_FAT32)?4:2; // 2 byte for FAT16
 3042a5c:	e0bffe17 	ldw	r2,-8(fp)
 3042a60:	10800317 	ldw	r2,12(r2)
 3042a64:	108002d8 	cmpnei	r2,r2,11
 3042a68:	1000021e 	bne	r2,zero,3042a74 <fatFindUnusedCluster+0x40>
 3042a6c:	00800104 	movi	r2,4
 3042a70:	00000106 	br	3042a78 <fatFindUnusedCluster+0x44>
 3042a74:	00800084 	movi	r2,2
 3042a78:	e0bff915 	stw	r2,-28(fp)
    const alt_32 nFatEntryPerSecter = pVol->BPB_BytsPerSec/nFatEntrySize;
 3042a7c:	e0bffe17 	ldw	r2,-8(fp)
 3042a80:	10c00617 	ldw	r3,24(r2)
 3042a84:	e0bff917 	ldw	r2,-28(fp)
 3042a88:	1809883a 	mov	r4,r3
 3042a8c:	100b883a 	mov	r5,r2
 3042a90:	30484600 	call	3048460 <__udivsi3>
 3042a94:	e0bffa15 	stw	r2,-24(fp)
    alt_u32 Secter;
    bool bDone = FALSE;
 3042a98:	e03ff815 	stw	zero,-32(fp)

    while(!bDone){     
 3042a9c:	00003a06 	br	3042b88 <fatFindUnusedCluster+0x154>
        Secter = pVol->FatEntrySecter + (ThisCluster*nFatEntrySize)/pVol->BPB_BytsPerSec;
 3042aa0:	e0bffe17 	ldw	r2,-8(fp)
 3042aa4:	14000d17 	ldw	r16,52(r2)
 3042aa8:	e0fff917 	ldw	r3,-28(fp)
 3042aac:	e0bff717 	ldw	r2,-36(fp)
 3042ab0:	1887383a 	mul	r3,r3,r2
 3042ab4:	e0bffe17 	ldw	r2,-8(fp)
 3042ab8:	10800617 	ldw	r2,24(r2)
 3042abc:	1809883a 	mov	r4,r3
 3042ac0:	100b883a 	mov	r5,r2
 3042ac4:	30484600 	call	3048460 <__udivsi3>
 3042ac8:	8085883a 	add	r2,r16,r2
 3042acc:	e0bffb15 	stw	r2,-20(fp)
        if (fatReadSecter(pVol, Secter)){
 3042ad0:	e13ffe17 	ldw	r4,-8(fp)
 3042ad4:	e17ffb17 	ldw	r5,-20(fp)
 3042ad8:	30437840 	call	3043784 <fatReadSecter>
 3042adc:	10002526 	beq	r2,zero,3042b74 <fatFindUnusedCluster+0x140>
            pFatEntry = (pVol->Secter_Data + (ThisCluster%nFatEntryPerSecter)*nFatEntrySize);
 3042ae0:	e0bffa17 	ldw	r2,-24(fp)
 3042ae4:	e0fff717 	ldw	r3,-36(fp)
 3042ae8:	1809883a 	mov	r4,r3
 3042aec:	100b883a 	mov	r5,r2
 3042af0:	30484680 	call	3048468 <__umodsi3>
 3042af4:	1007883a 	mov	r3,r2
 3042af8:	e0bff917 	ldw	r2,-28(fp)
 3042afc:	1885383a 	mul	r2,r3,r2
 3042b00:	10801004 	addi	r2,r2,64
 3042b04:	e0fffe17 	ldw	r3,-8(fp)
 3042b08:	1885883a 	add	r2,r3,r2
 3042b0c:	e0bffc15 	stw	r2,-16(fp)
            if (pVol->Partition_Type == PARTITION_FAT32){
 3042b10:	e0bffe17 	ldw	r2,-8(fp)
 3042b14:	10800317 	ldw	r2,12(r2)
 3042b18:	108002d8 	cmpnei	r2,r2,11
 3042b1c:	1000071e 	bne	r2,zero,3042b3c <fatFindUnusedCluster+0x108>
                ClusterEntryValue = *(alt_u32*)pFatEntry; 
 3042b20:	e0bffc17 	ldw	r2,-16(fp)
 3042b24:	10800017 	ldw	r2,0(r2)
 3042b28:	e0bffd15 	stw	r2,-12(fp)
                ClusterType = fat32ClusterType(ClusterEntryValue);
 3042b2c:	e13ffd17 	ldw	r4,-12(fp)
 3042b30:	30428000 	call	3042800 <fat32ClusterType>
 3042b34:	e0bff515 	stw	r2,-44(fp)
 3042b38:	00000706 	br	3042b58 <fatFindUnusedCluster+0x124>
            }else{
                ClusterEntryValue = *(alt_u16 *)pFatEntry; 
 3042b3c:	e0bffc17 	ldw	r2,-16(fp)
 3042b40:	1080000b 	ldhu	r2,0(r2)
 3042b44:	10bfffcc 	andi	r2,r2,65535
 3042b48:	e0bffd15 	stw	r2,-12(fp)
                ClusterType = fat16ClusterType(ClusterEntryValue);
 3042b4c:	e13ffd17 	ldw	r4,-12(fp)
 3042b50:	30427500 	call	3042750 <fat16ClusterType>
 3042b54:	e0bff515 	stw	r2,-44(fp)
            }    
            if (ClusterType == CLUSTER_UNUSED){
 3042b58:	e0bff517 	ldw	r2,-44(fp)
 3042b5c:	1000071e 	bne	r2,zero,3042b7c <fatFindUnusedCluster+0x148>
                UnusedCluster = ThisCluster;  // invalid cluster
 3042b60:	e0bff717 	ldw	r2,-36(fp)
 3042b64:	e0bff615 	stw	r2,-40(fp)
                bDone = TRUE;
 3042b68:	00800044 	movi	r2,1
 3042b6c:	e0bff815 	stw	r2,-32(fp)
 3042b70:	00000206 	br	3042b7c <fatFindUnusedCluster+0x148>
            }    
        }else{
            bDone = TRUE;
 3042b74:	00800044 	movi	r2,1
 3042b78:	e0bff815 	stw	r2,-32(fp)
        }     
        ThisCluster++;           
 3042b7c:	e0bff717 	ldw	r2,-36(fp)
 3042b80:	10800044 	addi	r2,r2,1
 3042b84:	e0bff715 	stw	r2,-36(fp)
    const alt_32 nFatEntrySize = (pVol->Partition_Type == PARTITION_FAT32)?4:2; // 2 byte for FAT16
    const alt_32 nFatEntryPerSecter = pVol->BPB_BytsPerSec/nFatEntrySize;
    alt_u32 Secter;
    bool bDone = FALSE;

    while(!bDone){     
 3042b88:	e0bff817 	ldw	r2,-32(fp)
 3042b8c:	103fc426 	beq	r2,zero,3042aa0 <__alt_data_end+0xfffc2aa0>
            bDone = TRUE;
        }     
        ThisCluster++;           
    }                
    
    return UnusedCluster;
 3042b90:	e0bff617 	ldw	r2,-40(fp)

}
 3042b94:	e6ffff04 	addi	sp,fp,-4
 3042b98:	dfc00217 	ldw	ra,8(sp)
 3042b9c:	df000117 	ldw	fp,4(sp)
 3042ba0:	dc000017 	ldw	r16,0(sp)
 3042ba4:	dec00304 	addi	sp,sp,12
 3042ba8:	f800283a 	ret

03042bac <fatDelClusterList>:


bool fatDelClusterList(VOLUME_INFO *pVol, alt_u32 StartCluster){
 3042bac:	defff204 	addi	sp,sp,-56
 3042bb0:	dfc00d15 	stw	ra,52(sp)
 3042bb4:	df000c15 	stw	fp,48(sp)
 3042bb8:	dc000b15 	stw	r16,44(sp)
 3042bbc:	df000c04 	addi	fp,sp,48
 3042bc0:	e13ffd15 	stw	r4,-12(fp)
 3042bc4:	e17ffe15 	stw	r5,-8(fp)
    CLUSTER_TYPE ClusterType;
    bool bSuccess = TRUE;
 3042bc8:	00800044 	movi	r2,1
 3042bcc:	e0bff515 	stw	r2,-44(fp)
    bool bDone = FALSE;
 3042bd0:	e03ff615 	stw	zero,-40(fp)
    alt_u32 ClusterIndex, Secter, ClusterEntryValue;
    void *pFatEntryValue;
    
    
    const int nFatEntrySize = (pVol->Partition_Type == PARTITION_FAT32)?4:2; // 2 byte for FAT16
 3042bd4:	e0bffd17 	ldw	r2,-12(fp)
 3042bd8:	10800317 	ldw	r2,12(r2)
 3042bdc:	108002d8 	cmpnei	r2,r2,11
 3042be0:	1000021e 	bne	r2,zero,3042bec <fatDelClusterList+0x40>
 3042be4:	00800104 	movi	r2,4
 3042be8:	00000106 	br	3042bf0 <fatDelClusterList+0x44>
 3042bec:	00800084 	movi	r2,2
 3042bf0:	e0bff715 	stw	r2,-36(fp)
    const int nFatEntryPerSecter = pVol->BPB_BytsPerSec/nFatEntrySize;
 3042bf4:	e0bffd17 	ldw	r2,-12(fp)
 3042bf8:	10c00617 	ldw	r3,24(r2)
 3042bfc:	e0bff717 	ldw	r2,-36(fp)
 3042c00:	1809883a 	mov	r4,r3
 3042c04:	100b883a 	mov	r5,r2
 3042c08:	30484600 	call	3048460 <__udivsi3>
 3042c0c:	e0bff815 	stw	r2,-32(fp)
     
    ClusterIndex = StartCluster;
 3042c10:	e0bffe17 	ldw	r2,-8(fp)
 3042c14:	e0bff915 	stw	r2,-28(fp)
    while(bSuccess && !bDone){
 3042c18:	00005306 	br	3042d68 <fatDelClusterList+0x1bc>
        // read FAT Table
        Secter = pVol->FatEntrySecter + (ClusterIndex*nFatEntrySize)/pVol->BPB_BytsPerSec;
 3042c1c:	e0bffd17 	ldw	r2,-12(fp)
 3042c20:	14000d17 	ldw	r16,52(r2)
 3042c24:	e0fff717 	ldw	r3,-36(fp)
 3042c28:	e0bff917 	ldw	r2,-28(fp)
 3042c2c:	1887383a 	mul	r3,r3,r2
 3042c30:	e0bffd17 	ldw	r2,-12(fp)
 3042c34:	10800617 	ldw	r2,24(r2)
 3042c38:	1809883a 	mov	r4,r3
 3042c3c:	100b883a 	mov	r5,r2
 3042c40:	30484600 	call	3048460 <__udivsi3>
 3042c44:	8085883a 	add	r2,r16,r2
 3042c48:	e0bffa15 	stw	r2,-24(fp)
        bSuccess = fatReadSecter(pVol, Secter);
 3042c4c:	e13ffd17 	ldw	r4,-12(fp)
 3042c50:	e17ffa17 	ldw	r5,-24(fp)
 3042c54:	30437840 	call	3043784 <fatReadSecter>
 3042c58:	e0bff515 	stw	r2,-44(fp)
        if (bSuccess){
 3042c5c:	e0bff517 	ldw	r2,-44(fp)
 3042c60:	10004126 	beq	r2,zero,3042d68 <fatDelClusterList+0x1bc>
            // get the value of FAT entry
            pFatEntryValue = (pVol->Secter_Data + (ClusterIndex%nFatEntryPerSecter)*nFatEntrySize);
 3042c64:	e0bff817 	ldw	r2,-32(fp)
 3042c68:	e0fff917 	ldw	r3,-28(fp)
 3042c6c:	1809883a 	mov	r4,r3
 3042c70:	100b883a 	mov	r5,r2
 3042c74:	30484680 	call	3048468 <__umodsi3>
 3042c78:	1007883a 	mov	r3,r2
 3042c7c:	e0bff717 	ldw	r2,-36(fp)
 3042c80:	1885383a 	mul	r2,r3,r2
 3042c84:	10801004 	addi	r2,r2,64
 3042c88:	e0fffd17 	ldw	r3,-12(fp)
 3042c8c:	1885883a 	add	r2,r3,r2
 3042c90:	e0bffb15 	stw	r2,-20(fp)
            if (pVol->Partition_Type == PARTITION_FAT32){
 3042c94:	e0bffd17 	ldw	r2,-12(fp)
 3042c98:	10800317 	ldw	r2,12(r2)
 3042c9c:	108002d8 	cmpnei	r2,r2,11
 3042ca0:	1000071e 	bne	r2,zero,3042cc0 <fatDelClusterList+0x114>
                ClusterEntryValue = *(alt_u32 *)pFatEntryValue; 
 3042ca4:	e0bffb17 	ldw	r2,-20(fp)
 3042ca8:	10800017 	ldw	r2,0(r2)
 3042cac:	e0bffc15 	stw	r2,-16(fp)
                ClusterType = fat32ClusterType(ClusterEntryValue);
 3042cb0:	e13ffc17 	ldw	r4,-16(fp)
 3042cb4:	30428000 	call	3042800 <fat32ClusterType>
 3042cb8:	e0bff415 	stw	r2,-48(fp)
 3042cbc:	00000706 	br	3042cdc <fatDelClusterList+0x130>
            }else{
                ClusterEntryValue = *(alt_u16 *)pFatEntryValue; //(pVol->Secter_Data + (ThisCluster%nFatEntryPerSecter)*nFatEntrySize); 
 3042cc0:	e0bffb17 	ldw	r2,-20(fp)
 3042cc4:	1080000b 	ldhu	r2,0(r2)
 3042cc8:	10bfffcc 	andi	r2,r2,65535
 3042ccc:	e0bffc15 	stw	r2,-16(fp)
                ClusterType = fat16ClusterType(ClusterEntryValue);
 3042cd0:	e13ffc17 	ldw	r4,-16(fp)
 3042cd4:	30427500 	call	3042750 <fat16ClusterType>
 3042cd8:	e0bff415 	stw	r2,-48(fp)
            }
                
            if (ClusterType != CLUSTER_NEXT_INFILE && ClusterType != CLUSTER_LAST_INFILE){
 3042cdc:	e0bff417 	ldw	r2,-48(fp)
 3042ce0:	10800120 	cmpeqi	r2,r2,4
 3042ce4:	1000071e 	bne	r2,zero,3042d04 <fatDelClusterList+0x158>
 3042ce8:	e0bff417 	ldw	r2,-48(fp)
 3042cec:	108000e0 	cmpeqi	r2,r2,3
 3042cf0:	1000041e 	bne	r2,zero,3042d04 <fatDelClusterList+0x158>
                bDone = TRUE;
 3042cf4:	00800044 	movi	r2,1
 3042cf8:	e0bff615 	stw	r2,-40(fp)
                bSuccess = FALSE;
 3042cfc:	e03ff515 	stw	zero,-44(fp)
 3042d00:	00001906 	br	3042d68 <fatDelClusterList+0x1bc>
            }else{
                if (ClusterType == CLUSTER_LAST_INFILE)
 3042d04:	e0bff417 	ldw	r2,-48(fp)
 3042d08:	108000d8 	cmpnei	r2,r2,3
 3042d0c:	1000021e 	bne	r2,zero,3042d18 <fatDelClusterList+0x16c>
                    bDone = TRUE; // the last cluster
 3042d10:	00800044 	movi	r2,1
 3042d14:	e0bff615 	stw	r2,-40(fp)
                // update
                if (pVol->Partition_Type == PARTITION_FAT32)
 3042d18:	e0bffd17 	ldw	r2,-12(fp)
 3042d1c:	10800317 	ldw	r2,12(r2)
 3042d20:	108002d8 	cmpnei	r2,r2,11
 3042d24:	1000031e 	bne	r2,zero,3042d34 <fatDelClusterList+0x188>
                    *(alt_u32 *)pFatEntryValue = CLUSTER_UNUSED;
 3042d28:	e0bffb17 	ldw	r2,-20(fp)
 3042d2c:	10000015 	stw	zero,0(r2)
 3042d30:	00000206 	br	3042d3c <fatDelClusterList+0x190>
                else 
                    *(alt_u16 *)pFatEntryValue = CLUSTER_UNUSED;
 3042d34:	e0bffb17 	ldw	r2,-20(fp)
 3042d38:	1000000d 	sth	zero,0(r2)
                //write back FAT Table
                bSuccess = pVol->WriteBlock512(pVol->DiskHandle, pVol->Secter_Index, pVol->Secter_Data);
 3042d3c:	e0bffd17 	ldw	r2,-12(fp)
 3042d40:	10800217 	ldw	r2,8(r2)
 3042d44:	e0fffd17 	ldw	r3,-12(fp)
 3042d48:	19000017 	ldw	r4,0(r3)
 3042d4c:	e0fffd17 	ldw	r3,-12(fp)
 3042d50:	19409017 	ldw	r5,576(r3)
 3042d54:	e0fffd17 	ldw	r3,-12(fp)
 3042d58:	18c01004 	addi	r3,r3,64
 3042d5c:	180d883a 	mov	r6,r3
 3042d60:	103ee83a 	callr	r2
 3042d64:	e0bff515 	stw	r2,-44(fp)
    
    const int nFatEntrySize = (pVol->Partition_Type == PARTITION_FAT32)?4:2; // 2 byte for FAT16
    const int nFatEntryPerSecter = pVol->BPB_BytsPerSec/nFatEntrySize;
     
    ClusterIndex = StartCluster;
    while(bSuccess && !bDone){
 3042d68:	e0bff517 	ldw	r2,-44(fp)
 3042d6c:	10000226 	beq	r2,zero,3042d78 <fatDelClusterList+0x1cc>
 3042d70:	e0bff617 	ldw	r2,-40(fp)
 3042d74:	103fa926 	beq	r2,zero,3042c1c <__alt_data_end+0xfffc2c1c>
            }    
        }                
    }  // while                
    
    
    return bSuccess;
 3042d78:	e0bff517 	ldw	r2,-44(fp)

}
 3042d7c:	e6ffff04 	addi	sp,fp,-4
 3042d80:	dfc00217 	ldw	ra,8(sp)
 3042d84:	df000117 	ldw	fp,4(sp)
 3042d88:	dc000017 	ldw	r16,0(sp)
 3042d8c:	dec00304 	addi	sp,sp,12
 3042d90:	f800283a 	ret

03042d94 <fatDumpDate>:


void fatDumpDate(unsigned short Date){
 3042d94:	defffa04 	addi	sp,sp,-24
 3042d98:	dfc00515 	stw	ra,20(sp)
 3042d9c:	df000415 	stw	fp,16(sp)
 3042da0:	df000404 	addi	fp,sp,16
 3042da4:	2005883a 	mov	r2,r4
 3042da8:	e0bfff0d 	sth	r2,-4(fp)
    int Year, Month, Day;
    Year = ((Date >> 9) & 0x1F) + 1980;
 3042dac:	e0bfff0b 	ldhu	r2,-4(fp)
 3042db0:	1004d27a 	srli	r2,r2,9
 3042db4:	10bfffcc 	andi	r2,r2,65535
 3042db8:	108007cc 	andi	r2,r2,31
 3042dbc:	1081ef04 	addi	r2,r2,1980
 3042dc0:	e0bffc15 	stw	r2,-16(fp)
    Month = ((Date >> 5) & 0xF);
 3042dc4:	e0bfff0b 	ldhu	r2,-4(fp)
 3042dc8:	1004d17a 	srli	r2,r2,5
 3042dcc:	10bfffcc 	andi	r2,r2,65535
 3042dd0:	108003cc 	andi	r2,r2,15
 3042dd4:	e0bffd15 	stw	r2,-12(fp)
    Day = ((Date >> 0) & 0x1F);
 3042dd8:	e0bfff0b 	ldhu	r2,-4(fp)
 3042ddc:	108007cc 	andi	r2,r2,31
 3042de0:	e0bffe15 	stw	r2,-8(fp)
    FAT_DEBUG(("%d,%d,%d", Year, Month, Day)); 
 3042de4:	0100c1f4 	movhi	r4,775
 3042de8:	21222004 	addi	r4,r4,-30592
 3042dec:	3045e5c0 	call	3045e5c <myprintf>
 3042df0:	0100c1f4 	movhi	r4,775
 3042df4:	21222204 	addi	r4,r4,-30584
 3042df8:	e17ffc17 	ldw	r5,-16(fp)
 3042dfc:	e1bffd17 	ldw	r6,-12(fp)
 3042e00:	e1fffe17 	ldw	r7,-8(fp)
 3042e04:	3045e5c0 	call	3045e5c <myprintf>
}
 3042e08:	e037883a 	mov	sp,fp
 3042e0c:	dfc00117 	ldw	ra,4(sp)
 3042e10:	df000017 	ldw	fp,0(sp)
 3042e14:	dec00204 	addi	sp,sp,8
 3042e18:	f800283a 	ret

03042e1c <fatDumpTime>:

void fatDumpTime(unsigned short Date){
 3042e1c:	defffa04 	addi	sp,sp,-24
 3042e20:	dfc00515 	stw	ra,20(sp)
 3042e24:	df000415 	stw	fp,16(sp)
 3042e28:	df000404 	addi	fp,sp,16
 3042e2c:	2005883a 	mov	r2,r4
 3042e30:	e0bfff0d 	sth	r2,-4(fp)
    int H,M,S;
    H = ((Date >> 9) & 0x1F);
 3042e34:	e0bfff0b 	ldhu	r2,-4(fp)
 3042e38:	1004d27a 	srli	r2,r2,9
 3042e3c:	10bfffcc 	andi	r2,r2,65535
 3042e40:	108007cc 	andi	r2,r2,31
 3042e44:	e0bffc15 	stw	r2,-16(fp)
    M = ((Date >> 5) & 0x3F);
 3042e48:	e0bfff0b 	ldhu	r2,-4(fp)
 3042e4c:	1004d17a 	srli	r2,r2,5
 3042e50:	10bfffcc 	andi	r2,r2,65535
 3042e54:	10800fcc 	andi	r2,r2,63
 3042e58:	e0bffd15 	stw	r2,-12(fp)
    S = ((Date >> 0) & 0x1F)*2;
 3042e5c:	e0bfff0b 	ldhu	r2,-4(fp)
 3042e60:	108007cc 	andi	r2,r2,31
 3042e64:	1085883a 	add	r2,r2,r2
 3042e68:	e0bffe15 	stw	r2,-8(fp)
    FAT_DEBUG(("%d:%d:%d", H, M, S));     
 3042e6c:	0100c1f4 	movhi	r4,775
 3042e70:	21222004 	addi	r4,r4,-30592
 3042e74:	3045e5c0 	call	3045e5c <myprintf>
 3042e78:	0100c1f4 	movhi	r4,775
 3042e7c:	21222504 	addi	r4,r4,-30572
 3042e80:	e17ffc17 	ldw	r5,-16(fp)
 3042e84:	e1bffd17 	ldw	r6,-12(fp)
 3042e88:	e1fffe17 	ldw	r7,-8(fp)
 3042e8c:	3045e5c0 	call	3045e5c <myprintf>
}
 3042e90:	e037883a 	mov	sp,fp
 3042e94:	dfc00117 	ldw	ra,4(sp)
 3042e98:	df000017 	ldw	fp,0(sp)
 3042e9c:	dec00204 	addi	sp,sp,8
 3042ea0:	f800283a 	ret

03042ea4 <fatIsLastDir>:

bool fatIsLastDir(FAT_DIRECTORY *pDir){
 3042ea4:	defffe04 	addi	sp,sp,-8
 3042ea8:	df000115 	stw	fp,4(sp)
 3042eac:	df000104 	addi	fp,sp,4
 3042eb0:	e13fff15 	stw	r4,-4(fp)
    if (pDir->Name[0] == REMAINED_UNUSED_DIR_ENTRY)  // 0x00
 3042eb4:	e0bfff17 	ldw	r2,-4(fp)
 3042eb8:	10800003 	ldbu	r2,0(r2)
 3042ebc:	10803fcc 	andi	r2,r2,255
 3042ec0:	1080201c 	xori	r2,r2,128
 3042ec4:	10bfe004 	addi	r2,r2,-128
 3042ec8:	1000021e 	bne	r2,zero,3042ed4 <fatIsLastDir+0x30>
        return TRUE;
 3042ecc:	00800044 	movi	r2,1
 3042ed0:	00000106 	br	3042ed8 <fatIsLastDir+0x34>
    return FALSE;        
 3042ed4:	0005883a 	mov	r2,zero
}
 3042ed8:	e037883a 	mov	sp,fp
 3042edc:	df000017 	ldw	fp,0(sp)
 3042ee0:	dec00104 	addi	sp,sp,4
 3042ee4:	f800283a 	ret

03042ee8 <fatIsValidDir>:


bool fatIsValidDir(FAT_DIRECTORY *pDir){
 3042ee8:	defff704 	addi	sp,sp,-36
 3042eec:	dfc00815 	stw	ra,32(sp)
 3042ef0:	df000715 	stw	fp,28(sp)
 3042ef4:	df000704 	addi	fp,sp,28
 3042ef8:	e13fff15 	stw	r4,-4(fp)
    char szTest[] = {0x00, 0xE5, 0x22, 0x2A, 0x2B, 0x2C, 0x2E, 0x2F, 0x3A, 0x3B, 0x3C, 0x3E, 0x3F, 0x5B, 0x5C, 0x5D, 0x7C};
 3042efc:	0080c1f4 	movhi	r2,775
 3042f00:	10a22744 	addi	r2,r2,-30563
 3042f04:	e0fffa04 	addi	r3,fp,-24
 3042f08:	100b883a 	mov	r5,r2
 3042f0c:	00800444 	movi	r2,17
 3042f10:	1809883a 	mov	r4,r3
 3042f14:	100d883a 	mov	r6,r2
 3042f18:	304b7280 	call	304b728 <memcpy>
    int i;
    
    for(i=0;i<sizeof(szTest)/sizeof(szTest[0]);i++){
 3042f1c:	e03ff915 	stw	zero,-28(fp)
 3042f20:	00001206 	br	3042f6c <fatIsValidDir+0x84>
        if (pDir->Name[0] == szTest[i]){
 3042f24:	e0bfff17 	ldw	r2,-4(fp)
 3042f28:	11000003 	ldbu	r4,0(r2)
 3042f2c:	e0fffa04 	addi	r3,fp,-24
 3042f30:	e0bff917 	ldw	r2,-28(fp)
 3042f34:	1885883a 	add	r2,r3,r2
 3042f38:	10800003 	ldbu	r2,0(r2)
 3042f3c:	20c03fcc 	andi	r3,r4,255
 3042f40:	18c0201c 	xori	r3,r3,128
 3042f44:	18ffe004 	addi	r3,r3,-128
 3042f48:	10803fcc 	andi	r2,r2,255
 3042f4c:	1080201c 	xori	r2,r2,128
 3042f50:	10bfe004 	addi	r2,r2,-128
 3042f54:	1880021e 	bne	r3,r2,3042f60 <fatIsValidDir+0x78>
            return FALSE;
 3042f58:	0005883a 	mov	r2,zero
 3042f5c:	00000706 	br	3042f7c <fatIsValidDir+0x94>

bool fatIsValidDir(FAT_DIRECTORY *pDir){
    char szTest[] = {0x00, 0xE5, 0x22, 0x2A, 0x2B, 0x2C, 0x2E, 0x2F, 0x3A, 0x3B, 0x3C, 0x3E, 0x3F, 0x5B, 0x5C, 0x5D, 0x7C};
    int i;
    
    for(i=0;i<sizeof(szTest)/sizeof(szTest[0]);i++){
 3042f60:	e0bff917 	ldw	r2,-28(fp)
 3042f64:	10800044 	addi	r2,r2,1
 3042f68:	e0bff915 	stw	r2,-28(fp)
 3042f6c:	e0bff917 	ldw	r2,-28(fp)
 3042f70:	10800470 	cmpltui	r2,r2,17
 3042f74:	103feb1e 	bne	r2,zero,3042f24 <__alt_data_end+0xfffc2f24>
        if (pDir->Name[0] == szTest[i]){
            return FALSE;
        }
    }    
    return TRUE;
 3042f78:	00800044 	movi	r2,1
    
}
 3042f7c:	e037883a 	mov	sp,fp
 3042f80:	dfc00117 	ldw	ra,4(sp)
 3042f84:	df000017 	ldw	fp,0(sp)
 3042f88:	dec00204 	addi	sp,sp,8
 3042f8c:	f800283a 	ret

03042f90 <fatIsUnusedDir>:

bool fatIsUnusedDir(FAT_DIRECTORY *pDir){
 3042f90:	defffe04 	addi	sp,sp,-8
 3042f94:	df000115 	stw	fp,4(sp)
 3042f98:	df000104 	addi	fp,sp,4
 3042f9c:	e13fff15 	stw	r4,-4(fp)
    if (pDir->Name[0] == (alt_8)UNUSED_DIR_ENTRY)
 3042fa0:	e0bfff17 	ldw	r2,-4(fp)
 3042fa4:	10800003 	ldbu	r2,0(r2)
 3042fa8:	10803fcc 	andi	r2,r2,255
 3042fac:	1080201c 	xori	r2,r2,128
 3042fb0:	10bfe004 	addi	r2,r2,-128
 3042fb4:	10bff958 	cmpnei	r2,r2,-27
 3042fb8:	1000021e 	bne	r2,zero,3042fc4 <fatIsUnusedDir+0x34>
        return TRUE;
 3042fbc:	00800044 	movi	r2,1
 3042fc0:	00000106 	br	3042fc8 <fatIsUnusedDir+0x38>
    return FALSE; 
 3042fc4:	0005883a 	mov	r2,zero
}
 3042fc8:	e037883a 	mov	sp,fp
 3042fcc:	df000017 	ldw	fp,0(sp)
 3042fd0:	dec00104 	addi	sp,sp,4
 3042fd4:	f800283a 	ret

03042fd8 <fatDump>:

// debug
void fatDump(FAT_DIRECTORY *pDir){
 3042fd8:	defff304 	addi	sp,sp,-52
 3042fdc:	dfc00c15 	stw	ra,48(sp)
 3042fe0:	df000b15 	stw	fp,44(sp)
 3042fe4:	df000b04 	addi	fp,sp,44
 3042fe8:	e13fff15 	stw	r4,-4(fp)
    char szInvalidName[] = {0x22, 0x2A, 0x2B, 0x2C, 0x2E, 0x2F, 0x3A, 0x3B, 0x3C, 0x3E, 0x3F, 0x5B, 0x5C, 0x5D, 0x7C};
 3042fec:	0080c1f4 	movhi	r2,775
 3042ff0:	10a29684 	addi	r2,r2,-30118
 3042ff4:	e0fffb04 	addi	r3,fp,-20
 3042ff8:	100b883a 	mov	r5,r2
 3042ffc:	008003c4 	movi	r2,15
 3043000:	1809883a 	mov	r4,r3
 3043004:	100d883a 	mov	r6,r2
 3043008:	304b7280 	call	304b728 <memcpy>
    int i;
    if (pDir->Name[0] == (char)0xE5){
 304300c:	e0bfff17 	ldw	r2,-4(fp)
 3043010:	10800003 	ldbu	r2,0(r2)
 3043014:	10803fcc 	andi	r2,r2,255
 3043018:	1080201c 	xori	r2,r2,128
 304301c:	10bfe004 	addi	r2,r2,-128
 3043020:	10bff958 	cmpnei	r2,r2,-27
 3043024:	1000071e 	bne	r2,zero,3043044 <fatDump+0x6c>
        FAT_DEBUG(("the directory entry is free.\n"));
 3043028:	0100c1f4 	movhi	r4,775
 304302c:	21222004 	addi	r4,r4,-30592
 3043030:	3045e5c0 	call	3045e5c <myprintf>
 3043034:	0100c1f4 	movhi	r4,775
 3043038:	21222c04 	addi	r4,r4,-30544
 304303c:	3045e5c0 	call	3045e5c <myprintf>
        return;
 3043040:	0001a906 	br	30436e8 <fatDump+0x710>
    }
    if (pDir->Name[0] == 0x00){
 3043044:	e0bfff17 	ldw	r2,-4(fp)
 3043048:	10800003 	ldbu	r2,0(r2)
 304304c:	10803fcc 	andi	r2,r2,255
 3043050:	1080201c 	xori	r2,r2,128
 3043054:	10bfe004 	addi	r2,r2,-128
 3043058:	1000071e 	bne	r2,zero,3043078 <fatDump+0xa0>
        FAT_DEBUG(("the directory entry is free, and there are no allocated directory entries after tis one.\n"));
 304305c:	0100c1f4 	movhi	r4,775
 3043060:	21222004 	addi	r4,r4,-30592
 3043064:	3045e5c0 	call	3045e5c <myprintf>
 3043068:	0100c1f4 	movhi	r4,775
 304306c:	21223404 	addi	r4,r4,-30512
 3043070:	3045e5c0 	call	3045e5c <myprintf>
        return;
 3043074:	00019c06 	br	30436e8 <fatDump+0x710>
    }
    
    if (pDir->Name[0] <= 0x20 && pDir->Name[0] != 0x05){
 3043078:	e0bfff17 	ldw	r2,-4(fp)
 304307c:	10800003 	ldbu	r2,0(r2)
 3043080:	10803fcc 	andi	r2,r2,255
 3043084:	1080201c 	xori	r2,r2,128
 3043088:	10bfe004 	addi	r2,r2,-128
 304308c:	10800848 	cmpgei	r2,r2,33
 3043090:	10000e1e 	bne	r2,zero,30430cc <fatDump+0xf4>
 3043094:	e0bfff17 	ldw	r2,-4(fp)
 3043098:	10800003 	ldbu	r2,0(r2)
 304309c:	10803fcc 	andi	r2,r2,255
 30430a0:	1080201c 	xori	r2,r2,128
 30430a4:	10bfe004 	addi	r2,r2,-128
 30430a8:	10800160 	cmpeqi	r2,r2,5
 30430ac:	1000071e 	bne	r2,zero,30430cc <fatDump+0xf4>
        FAT_DEBUG(("Invalid file name.\n"));
 30430b0:	0100c1f4 	movhi	r4,775
 30430b4:	21222004 	addi	r4,r4,-30592
 30430b8:	3045e5c0 	call	3045e5c <myprintf>
 30430bc:	0100c1f4 	movhi	r4,775
 30430c0:	21224b04 	addi	r4,r4,-30420
 30430c4:	3045e5c0 	call	3045e5c <myprintf>
        return;
 30430c8:	00018706 	br	30436e8 <fatDump+0x710>
    }
    
    for(i=0;i<sizeof(szInvalidName)/sizeof(szInvalidName[0]);i++){
 30430cc:	e03ffa15 	stw	zero,-24(fp)
 30430d0:	00001706 	br	3043130 <fatDump+0x158>
        if (pDir->Name[0] == szInvalidName[i]){
 30430d4:	e0bfff17 	ldw	r2,-4(fp)
 30430d8:	11000003 	ldbu	r4,0(r2)
 30430dc:	e0fffb04 	addi	r3,fp,-20
 30430e0:	e0bffa17 	ldw	r2,-24(fp)
 30430e4:	1885883a 	add	r2,r3,r2
 30430e8:	10800003 	ldbu	r2,0(r2)
 30430ec:	20c03fcc 	andi	r3,r4,255
 30430f0:	18c0201c 	xori	r3,r3,128
 30430f4:	18ffe004 	addi	r3,r3,-128
 30430f8:	10803fcc 	andi	r2,r2,255
 30430fc:	1080201c 	xori	r2,r2,128
 3043100:	10bfe004 	addi	r2,r2,-128
 3043104:	1880071e 	bne	r3,r2,3043124 <fatDump+0x14c>
            FAT_DEBUG(("Invalid file name.\n"));
 3043108:	0100c1f4 	movhi	r4,775
 304310c:	21222004 	addi	r4,r4,-30592
 3043110:	3045e5c0 	call	3045e5c <myprintf>
 3043114:	0100c1f4 	movhi	r4,775
 3043118:	21224b04 	addi	r4,r4,-30420
 304311c:	3045e5c0 	call	3045e5c <myprintf>
            return;
 3043120:	00017106 	br	30436e8 <fatDump+0x710>
    if (pDir->Name[0] <= 0x20 && pDir->Name[0] != 0x05){
        FAT_DEBUG(("Invalid file name.\n"));
        return;
    }
    
    for(i=0;i<sizeof(szInvalidName)/sizeof(szInvalidName[0]);i++){
 3043124:	e0bffa17 	ldw	r2,-24(fp)
 3043128:	10800044 	addi	r2,r2,1
 304312c:	e0bffa15 	stw	r2,-24(fp)
 3043130:	e0bffa17 	ldw	r2,-24(fp)
 3043134:	108003f0 	cmpltui	r2,r2,15
 3043138:	103fe61e 	bne	r2,zero,30430d4 <__alt_data_end+0xfffc30d4>
            return;
        }
    }    
    
    //printf("sizeof(FAT_TABLE):%d\n", (int)sizeof(FAT_TABLE));
    if (pDir->Name[0] == 0x05){
 304313c:	e0bfff17 	ldw	r2,-4(fp)
 3043140:	10800003 	ldbu	r2,0(r2)
 3043144:	10803fcc 	andi	r2,r2,255
 3043148:	1080201c 	xori	r2,r2,128
 304314c:	10bfe004 	addi	r2,r2,-128
 3043150:	10800158 	cmpnei	r2,r2,5
 3043154:	1000311e 	bne	r2,zero,304321c <fatDump+0x244>
        FAT_DEBUG(("Name:%c%c%c%c%c%c%c%c\n", 0xE5,pDir->Name[1],pDir->Name[2],pDir->Name[3],pDir->Name[4],pDir->Name[5],pDir->Name[6],pDir->Name[6]));
 3043158:	0100c1f4 	movhi	r4,775
 304315c:	21222004 	addi	r4,r4,-30592
 3043160:	3045e5c0 	call	3045e5c <myprintf>
 3043164:	e0bfff17 	ldw	r2,-4(fp)
 3043168:	10800043 	ldbu	r2,1(r2)
 304316c:	12003fcc 	andi	r8,r2,255
 3043170:	4200201c 	xori	r8,r8,128
 3043174:	423fe004 	addi	r8,r8,-128
 3043178:	e0bfff17 	ldw	r2,-4(fp)
 304317c:	10800083 	ldbu	r2,2(r2)
 3043180:	11c03fcc 	andi	r7,r2,255
 3043184:	39c0201c 	xori	r7,r7,128
 3043188:	39ffe004 	addi	r7,r7,-128
 304318c:	e0bfff17 	ldw	r2,-4(fp)
 3043190:	108000c3 	ldbu	r2,3(r2)
 3043194:	11803fcc 	andi	r6,r2,255
 3043198:	3180201c 	xori	r6,r6,128
 304319c:	31bfe004 	addi	r6,r6,-128
 30431a0:	e0bfff17 	ldw	r2,-4(fp)
 30431a4:	10800103 	ldbu	r2,4(r2)
 30431a8:	11403fcc 	andi	r5,r2,255
 30431ac:	2940201c 	xori	r5,r5,128
 30431b0:	297fe004 	addi	r5,r5,-128
 30431b4:	e0bfff17 	ldw	r2,-4(fp)
 30431b8:	10800143 	ldbu	r2,5(r2)
 30431bc:	11003fcc 	andi	r4,r2,255
 30431c0:	2100201c 	xori	r4,r4,128
 30431c4:	213fe004 	addi	r4,r4,-128
 30431c8:	e0bfff17 	ldw	r2,-4(fp)
 30431cc:	10800183 	ldbu	r2,6(r2)
 30431d0:	10c03fcc 	andi	r3,r2,255
 30431d4:	18c0201c 	xori	r3,r3,128
 30431d8:	18ffe004 	addi	r3,r3,-128
 30431dc:	e0bfff17 	ldw	r2,-4(fp)
 30431e0:	10800183 	ldbu	r2,6(r2)
 30431e4:	10803fcc 	andi	r2,r2,255
 30431e8:	1080201c 	xori	r2,r2,128
 30431ec:	10bfe004 	addi	r2,r2,-128
 30431f0:	d9800015 	stw	r6,0(sp)
 30431f4:	d9400115 	stw	r5,4(sp)
 30431f8:	d9000215 	stw	r4,8(sp)
 30431fc:	d8c00315 	stw	r3,12(sp)
 3043200:	d8800415 	stw	r2,16(sp)
 3043204:	0100c1f4 	movhi	r4,775
 3043208:	21225004 	addi	r4,r4,-30400
 304320c:	01403944 	movi	r5,229
 3043210:	400d883a 	mov	r6,r8
 3043214:	3045e5c0 	call	3045e5c <myprintf>
 3043218:	00003506 	br	30432f0 <fatDump+0x318>
    }else{
        FAT_DEBUG(("Name:%c%c%c%c%c%c%c%c\n", pDir->Name[0],pDir->Name[1],pDir->Name[2],pDir->Name[3],pDir->Name[4],pDir->Name[5],pDir->Name[6],pDir->Name[6]));
 304321c:	0100c1f4 	movhi	r4,775
 3043220:	21222004 	addi	r4,r4,-30592
 3043224:	3045e5c0 	call	3045e5c <myprintf>
 3043228:	e0bfff17 	ldw	r2,-4(fp)
 304322c:	10800003 	ldbu	r2,0(r2)
 3043230:	12403fcc 	andi	r9,r2,255
 3043234:	4a40201c 	xori	r9,r9,128
 3043238:	4a7fe004 	addi	r9,r9,-128
 304323c:	e0bfff17 	ldw	r2,-4(fp)
 3043240:	10800043 	ldbu	r2,1(r2)
 3043244:	12003fcc 	andi	r8,r2,255
 3043248:	4200201c 	xori	r8,r8,128
 304324c:	423fe004 	addi	r8,r8,-128
 3043250:	e0bfff17 	ldw	r2,-4(fp)
 3043254:	10800083 	ldbu	r2,2(r2)
 3043258:	11c03fcc 	andi	r7,r2,255
 304325c:	39c0201c 	xori	r7,r7,128
 3043260:	39ffe004 	addi	r7,r7,-128
 3043264:	e0bfff17 	ldw	r2,-4(fp)
 3043268:	108000c3 	ldbu	r2,3(r2)
 304326c:	11803fcc 	andi	r6,r2,255
 3043270:	3180201c 	xori	r6,r6,128
 3043274:	31bfe004 	addi	r6,r6,-128
 3043278:	e0bfff17 	ldw	r2,-4(fp)
 304327c:	10800103 	ldbu	r2,4(r2)
 3043280:	11403fcc 	andi	r5,r2,255
 3043284:	2940201c 	xori	r5,r5,128
 3043288:	297fe004 	addi	r5,r5,-128
 304328c:	e0bfff17 	ldw	r2,-4(fp)
 3043290:	10800143 	ldbu	r2,5(r2)
 3043294:	11003fcc 	andi	r4,r2,255
 3043298:	2100201c 	xori	r4,r4,128
 304329c:	213fe004 	addi	r4,r4,-128
 30432a0:	e0bfff17 	ldw	r2,-4(fp)
 30432a4:	10800183 	ldbu	r2,6(r2)
 30432a8:	10c03fcc 	andi	r3,r2,255
 30432ac:	18c0201c 	xori	r3,r3,128
 30432b0:	18ffe004 	addi	r3,r3,-128
 30432b4:	e0bfff17 	ldw	r2,-4(fp)
 30432b8:	10800183 	ldbu	r2,6(r2)
 30432bc:	10803fcc 	andi	r2,r2,255
 30432c0:	1080201c 	xori	r2,r2,128
 30432c4:	10bfe004 	addi	r2,r2,-128
 30432c8:	d9800015 	stw	r6,0(sp)
 30432cc:	d9400115 	stw	r5,4(sp)
 30432d0:	d9000215 	stw	r4,8(sp)
 30432d4:	d8c00315 	stw	r3,12(sp)
 30432d8:	d8800415 	stw	r2,16(sp)
 30432dc:	0100c1f4 	movhi	r4,775
 30432e0:	21225004 	addi	r4,r4,-30400
 30432e4:	480b883a 	mov	r5,r9
 30432e8:	400d883a 	mov	r6,r8
 30432ec:	3045e5c0 	call	3045e5c <myprintf>
    }        
    FAT_DEBUG(("Extention:%c%c%c\n", pDir->Extension[0],pDir->Extension[1],pDir->Extension[2]));
 30432f0:	0100c1f4 	movhi	r4,775
 30432f4:	21222004 	addi	r4,r4,-30592
 30432f8:	3045e5c0 	call	3045e5c <myprintf>
 30432fc:	e0bfff17 	ldw	r2,-4(fp)
 3043300:	10800203 	ldbu	r2,8(r2)
 3043304:	11403fcc 	andi	r5,r2,255
 3043308:	2940201c 	xori	r5,r5,128
 304330c:	297fe004 	addi	r5,r5,-128
 3043310:	e0bfff17 	ldw	r2,-4(fp)
 3043314:	10800243 	ldbu	r2,9(r2)
 3043318:	10c03fcc 	andi	r3,r2,255
 304331c:	18c0201c 	xori	r3,r3,128
 3043320:	18ffe004 	addi	r3,r3,-128
 3043324:	e0bfff17 	ldw	r2,-4(fp)
 3043328:	10800283 	ldbu	r2,10(r2)
 304332c:	10803fcc 	andi	r2,r2,255
 3043330:	1080201c 	xori	r2,r2,128
 3043334:	10bfe004 	addi	r2,r2,-128
 3043338:	0100c1f4 	movhi	r4,775
 304333c:	21225604 	addi	r4,r4,-30376
 3043340:	180d883a 	mov	r6,r3
 3043344:	100f883a 	mov	r7,r2
 3043348:	3045e5c0 	call	3045e5c <myprintf>
    FAT_DEBUG(("Attribute:%02Xh\n", pDir->Attribute));
 304334c:	0100c1f4 	movhi	r4,775
 3043350:	21222004 	addi	r4,r4,-30592
 3043354:	3045e5c0 	call	3045e5c <myprintf>
 3043358:	e0bfff17 	ldw	r2,-4(fp)
 304335c:	108002c3 	ldbu	r2,11(r2)
 3043360:	10803fcc 	andi	r2,r2,255
 3043364:	1080201c 	xori	r2,r2,128
 3043368:	10bfe004 	addi	r2,r2,-128
 304336c:	0100c1f4 	movhi	r4,775
 3043370:	21225b04 	addi	r4,r4,-30356
 3043374:	100b883a 	mov	r5,r2
 3043378:	3045e5c0 	call	3045e5c <myprintf>
    if (pDir->Attribute & ATTR_READ_ONLY)
 304337c:	e0bfff17 	ldw	r2,-4(fp)
 3043380:	108002c3 	ldbu	r2,11(r2)
 3043384:	10803fcc 	andi	r2,r2,255
 3043388:	1080004c 	andi	r2,r2,1
 304338c:	10000626 	beq	r2,zero,30433a8 <fatDump+0x3d0>
        FAT_DEBUG(("  Read-Only\n"));
 3043390:	0100c1f4 	movhi	r4,775
 3043394:	21222004 	addi	r4,r4,-30592
 3043398:	3045e5c0 	call	3045e5c <myprintf>
 304339c:	0100c1f4 	movhi	r4,775
 30433a0:	21226004 	addi	r4,r4,-30336
 30433a4:	3045e5c0 	call	3045e5c <myprintf>
    if (pDir->Attribute & ATTR_HIDDEN)
 30433a8:	e0bfff17 	ldw	r2,-4(fp)
 30433ac:	108002c3 	ldbu	r2,11(r2)
 30433b0:	10803fcc 	andi	r2,r2,255
 30433b4:	1080008c 	andi	r2,r2,2
 30433b8:	10000626 	beq	r2,zero,30433d4 <fatDump+0x3fc>
        FAT_DEBUG(("  Hidden\n"));
 30433bc:	0100c1f4 	movhi	r4,775
 30433c0:	21222004 	addi	r4,r4,-30592
 30433c4:	3045e5c0 	call	3045e5c <myprintf>
 30433c8:	0100c1f4 	movhi	r4,775
 30433cc:	21226404 	addi	r4,r4,-30320
 30433d0:	3045e5c0 	call	3045e5c <myprintf>
    if (pDir->Attribute & ATTR_SYSTEM)
 30433d4:	e0bfff17 	ldw	r2,-4(fp)
 30433d8:	108002c3 	ldbu	r2,11(r2)
 30433dc:	10803fcc 	andi	r2,r2,255
 30433e0:	1080010c 	andi	r2,r2,4
 30433e4:	10000626 	beq	r2,zero,3043400 <fatDump+0x428>
        FAT_DEBUG(("  System\n"));
 30433e8:	0100c1f4 	movhi	r4,775
 30433ec:	21222004 	addi	r4,r4,-30592
 30433f0:	3045e5c0 	call	3045e5c <myprintf>
 30433f4:	0100c1f4 	movhi	r4,775
 30433f8:	21226704 	addi	r4,r4,-30308
 30433fc:	3045e5c0 	call	3045e5c <myprintf>
    if (pDir->Attribute & ATTR_VOLUME_ID)
 3043400:	e0bfff17 	ldw	r2,-4(fp)
 3043404:	108002c3 	ldbu	r2,11(r2)
 3043408:	10803fcc 	andi	r2,r2,255
 304340c:	1080020c 	andi	r2,r2,8
 3043410:	10000626 	beq	r2,zero,304342c <fatDump+0x454>
        FAT_DEBUG(("  Volume\n"));
 3043414:	0100c1f4 	movhi	r4,775
 3043418:	21222004 	addi	r4,r4,-30592
 304341c:	3045e5c0 	call	3045e5c <myprintf>
 3043420:	0100c1f4 	movhi	r4,775
 3043424:	21226a04 	addi	r4,r4,-30296
 3043428:	3045e5c0 	call	3045e5c <myprintf>
    if (pDir->Attribute & ATTR_DIRECTORY)
 304342c:	e0bfff17 	ldw	r2,-4(fp)
 3043430:	108002c3 	ldbu	r2,11(r2)
 3043434:	10803fcc 	andi	r2,r2,255
 3043438:	1080040c 	andi	r2,r2,16
 304343c:	10000626 	beq	r2,zero,3043458 <fatDump+0x480>
        FAT_DEBUG(("  Directory\n"));
 3043440:	0100c1f4 	movhi	r4,775
 3043444:	21222004 	addi	r4,r4,-30592
 3043448:	3045e5c0 	call	3045e5c <myprintf>
 304344c:	0100c1f4 	movhi	r4,775
 3043450:	21226d04 	addi	r4,r4,-30284
 3043454:	3045e5c0 	call	3045e5c <myprintf>
    if (pDir->Attribute & ATTR_ARCHIVE)
 3043458:	e0bfff17 	ldw	r2,-4(fp)
 304345c:	108002c3 	ldbu	r2,11(r2)
 3043460:	10803fcc 	andi	r2,r2,255
 3043464:	1080080c 	andi	r2,r2,32
 3043468:	10000626 	beq	r2,zero,3043484 <fatDump+0x4ac>
        FAT_DEBUG(("  Archive\n"));
 304346c:	0100c1f4 	movhi	r4,775
 3043470:	21222004 	addi	r4,r4,-30592
 3043474:	3045e5c0 	call	3045e5c <myprintf>
 3043478:	0100c1f4 	movhi	r4,775
 304347c:	21227104 	addi	r4,r4,-30268
 3043480:	3045e5c0 	call	3045e5c <myprintf>
    if (pDir->Attribute & ATTR_LONG_NAME)
 3043484:	e0bfff17 	ldw	r2,-4(fp)
 3043488:	108002c3 	ldbu	r2,11(r2)
 304348c:	10803fcc 	andi	r2,r2,255
 3043490:	108003cc 	andi	r2,r2,15
 3043494:	10000626 	beq	r2,zero,30434b0 <fatDump+0x4d8>
        FAT_DEBUG(("  Long Name\n"));
 3043498:	0100c1f4 	movhi	r4,775
 304349c:	21222004 	addi	r4,r4,-30592
 30434a0:	3045e5c0 	call	3045e5c <myprintf>
 30434a4:	0100c1f4 	movhi	r4,775
 30434a8:	21227404 	addi	r4,r4,-30256
 30434ac:	3045e5c0 	call	3045e5c <myprintf>
    FAT_DEBUG(("CreateTime:")); fatDumpTime(pDir->CreateTime);FAT_DEBUG(("\n"));
 30434b0:	0100c1f4 	movhi	r4,775
 30434b4:	21222004 	addi	r4,r4,-30592
 30434b8:	3045e5c0 	call	3045e5c <myprintf>
 30434bc:	0100c1f4 	movhi	r4,775
 30434c0:	21227804 	addi	r4,r4,-30240
 30434c4:	3045e5c0 	call	3045e5c <myprintf>
 30434c8:	e0bfff17 	ldw	r2,-4(fp)
 30434cc:	10c00383 	ldbu	r3,14(r2)
 30434d0:	108003c3 	ldbu	r2,15(r2)
 30434d4:	1004923a 	slli	r2,r2,8
 30434d8:	10c4b03a 	or	r2,r2,r3
 30434dc:	10bfffcc 	andi	r2,r2,65535
 30434e0:	1009883a 	mov	r4,r2
 30434e4:	3042e1c0 	call	3042e1c <fatDumpTime>
 30434e8:	0100c1f4 	movhi	r4,775
 30434ec:	21222004 	addi	r4,r4,-30592
 30434f0:	3045e5c0 	call	3045e5c <myprintf>
 30434f4:	0100c1f4 	movhi	r4,775
 30434f8:	21227b04 	addi	r4,r4,-30228
 30434fc:	3045e5c0 	call	3045e5c <myprintf>
    FAT_DEBUG(("CreateDate:")); fatDumpDate(pDir->LastAccessDate);FAT_DEBUG(("\n"));
 3043500:	0100c1f4 	movhi	r4,775
 3043504:	21222004 	addi	r4,r4,-30592
 3043508:	3045e5c0 	call	3045e5c <myprintf>
 304350c:	0100c1f4 	movhi	r4,775
 3043510:	21227c04 	addi	r4,r4,-30224
 3043514:	3045e5c0 	call	3045e5c <myprintf>
 3043518:	e0bfff17 	ldw	r2,-4(fp)
 304351c:	10c00483 	ldbu	r3,18(r2)
 3043520:	108004c3 	ldbu	r2,19(r2)
 3043524:	1004923a 	slli	r2,r2,8
 3043528:	10c4b03a 	or	r2,r2,r3
 304352c:	10bfffcc 	andi	r2,r2,65535
 3043530:	1009883a 	mov	r4,r2
 3043534:	3042d940 	call	3042d94 <fatDumpDate>
 3043538:	0100c1f4 	movhi	r4,775
 304353c:	21222004 	addi	r4,r4,-30592
 3043540:	3045e5c0 	call	3045e5c <myprintf>
 3043544:	0100c1f4 	movhi	r4,775
 3043548:	21227b04 	addi	r4,r4,-30228
 304354c:	3045e5c0 	call	3045e5c <myprintf>
    FAT_DEBUG(("ClusterHi:%04Xh\n", pDir->FirstLogicalClusterHi));
 3043550:	0100c1f4 	movhi	r4,775
 3043554:	21222004 	addi	r4,r4,-30592
 3043558:	3045e5c0 	call	3045e5c <myprintf>
 304355c:	e0bfff17 	ldw	r2,-4(fp)
 3043560:	10c00503 	ldbu	r3,20(r2)
 3043564:	10800543 	ldbu	r2,21(r2)
 3043568:	1004923a 	slli	r2,r2,8
 304356c:	10c4b03a 	or	r2,r2,r3
 3043570:	10bfffcc 	andi	r2,r2,65535
 3043574:	0100c1f4 	movhi	r4,775
 3043578:	21227f04 	addi	r4,r4,-30212
 304357c:	100b883a 	mov	r5,r2
 3043580:	3045e5c0 	call	3045e5c <myprintf>
    FAT_DEBUG(("LastWriteTime:")); fatDumpTime(pDir->LastWriteTime);FAT_DEBUG(("\n"));
 3043584:	0100c1f4 	movhi	r4,775
 3043588:	21222004 	addi	r4,r4,-30592
 304358c:	3045e5c0 	call	3045e5c <myprintf>
 3043590:	0100c1f4 	movhi	r4,775
 3043594:	21228404 	addi	r4,r4,-30192
 3043598:	3045e5c0 	call	3045e5c <myprintf>
 304359c:	e0bfff17 	ldw	r2,-4(fp)
 30435a0:	10c00583 	ldbu	r3,22(r2)
 30435a4:	108005c3 	ldbu	r2,23(r2)
 30435a8:	1004923a 	slli	r2,r2,8
 30435ac:	10c4b03a 	or	r2,r2,r3
 30435b0:	10bfffcc 	andi	r2,r2,65535
 30435b4:	1009883a 	mov	r4,r2
 30435b8:	3042e1c0 	call	3042e1c <fatDumpTime>
 30435bc:	0100c1f4 	movhi	r4,775
 30435c0:	21222004 	addi	r4,r4,-30592
 30435c4:	3045e5c0 	call	3045e5c <myprintf>
 30435c8:	0100c1f4 	movhi	r4,775
 30435cc:	21227b04 	addi	r4,r4,-30228
 30435d0:	3045e5c0 	call	3045e5c <myprintf>
    FAT_DEBUG(("LastWriteDate:")); fatDumpDate(pDir->LastWriteDate);FAT_DEBUG(("\n"));
 30435d4:	0100c1f4 	movhi	r4,775
 30435d8:	21222004 	addi	r4,r4,-30592
 30435dc:	3045e5c0 	call	3045e5c <myprintf>
 30435e0:	0100c1f4 	movhi	r4,775
 30435e4:	21228804 	addi	r4,r4,-30176
 30435e8:	3045e5c0 	call	3045e5c <myprintf>
 30435ec:	e0bfff17 	ldw	r2,-4(fp)
 30435f0:	10c00603 	ldbu	r3,24(r2)
 30435f4:	10800643 	ldbu	r2,25(r2)
 30435f8:	1004923a 	slli	r2,r2,8
 30435fc:	10c4b03a 	or	r2,r2,r3
 3043600:	10bfffcc 	andi	r2,r2,65535
 3043604:	1009883a 	mov	r4,r2
 3043608:	3042d940 	call	3042d94 <fatDumpDate>
 304360c:	0100c1f4 	movhi	r4,775
 3043610:	21222004 	addi	r4,r4,-30592
 3043614:	3045e5c0 	call	3045e5c <myprintf>
 3043618:	0100c1f4 	movhi	r4,775
 304361c:	21227b04 	addi	r4,r4,-30228
 3043620:	3045e5c0 	call	3045e5c <myprintf>
    FAT_DEBUG(("Cluster:%04Xh(%d)\n", pDir->FirstLogicalCluster,pDir->FirstLogicalCluster));
 3043624:	0100c1f4 	movhi	r4,775
 3043628:	21222004 	addi	r4,r4,-30592
 304362c:	3045e5c0 	call	3045e5c <myprintf>
 3043630:	e0bfff17 	ldw	r2,-4(fp)
 3043634:	10c00683 	ldbu	r3,26(r2)
 3043638:	108006c3 	ldbu	r2,27(r2)
 304363c:	1004923a 	slli	r2,r2,8
 3043640:	10c4b03a 	or	r2,r2,r3
 3043644:	117fffcc 	andi	r5,r2,65535
 3043648:	e0bfff17 	ldw	r2,-4(fp)
 304364c:	10c00683 	ldbu	r3,26(r2)
 3043650:	108006c3 	ldbu	r2,27(r2)
 3043654:	1004923a 	slli	r2,r2,8
 3043658:	10c4b03a 	or	r2,r2,r3
 304365c:	10bfffcc 	andi	r2,r2,65535
 3043660:	0100c1f4 	movhi	r4,775
 3043664:	21228c04 	addi	r4,r4,-30160
 3043668:	100d883a 	mov	r6,r2
 304366c:	3045e5c0 	call	3045e5c <myprintf>
    FAT_DEBUG(("File Size:%08Xh(%ld)\n", pDir->FileSize, (long)pDir->FileSize));
 3043670:	0100c1f4 	movhi	r4,775
 3043674:	21222004 	addi	r4,r4,-30592
 3043678:	3045e5c0 	call	3045e5c <myprintf>
 304367c:	e0bfff17 	ldw	r2,-4(fp)
 3043680:	10c00703 	ldbu	r3,28(r2)
 3043684:	11000743 	ldbu	r4,29(r2)
 3043688:	2008923a 	slli	r4,r4,8
 304368c:	20c6b03a 	or	r3,r4,r3
 3043690:	11000783 	ldbu	r4,30(r2)
 3043694:	2008943a 	slli	r4,r4,16
 3043698:	20c6b03a 	or	r3,r4,r3
 304369c:	108007c3 	ldbu	r2,31(r2)
 30436a0:	1004963a 	slli	r2,r2,24
 30436a4:	10c4b03a 	or	r2,r2,r3
 30436a8:	100b883a 	mov	r5,r2
 30436ac:	e0bfff17 	ldw	r2,-4(fp)
 30436b0:	10c00703 	ldbu	r3,28(r2)
 30436b4:	11000743 	ldbu	r4,29(r2)
 30436b8:	2008923a 	slli	r4,r4,8
 30436bc:	20c6b03a 	or	r3,r4,r3
 30436c0:	11000783 	ldbu	r4,30(r2)
 30436c4:	2008943a 	slli	r4,r4,16
 30436c8:	20c6b03a 	or	r3,r4,r3
 30436cc:	108007c3 	ldbu	r2,31(r2)
 30436d0:	1004963a 	slli	r2,r2,24
 30436d4:	10c4b03a 	or	r2,r2,r3
 30436d8:	0100c1f4 	movhi	r4,775
 30436dc:	21229104 	addi	r4,r4,-30140
 30436e0:	100d883a 	mov	r6,r2
 30436e4:	3045e5c0 	call	3045e5c <myprintf>
}
 30436e8:	e037883a 	mov	sp,fp
 30436ec:	dfc00117 	ldw	ra,4(sp)
 30436f0:	df000017 	ldw	fp,0(sp)
 30436f4:	dec00204 	addi	sp,sp,8
 30436f8:	f800283a 	ret

030436fc <fatArray2Value>:


unsigned int fatArray2Value(unsigned char *pValue, unsigned int nNum){
 30436fc:	defffa04 	addi	sp,sp,-24
 3043700:	df000515 	stw	fp,20(sp)
 3043704:	df000504 	addi	fp,sp,20
 3043708:	e13ffe15 	stw	r4,-8(fp)
 304370c:	e17fff15 	stw	r5,-4(fp)
    alt_u8 *pMSB = (pValue + nNum - 1);
 3043710:	e0bfff17 	ldw	r2,-4(fp)
 3043714:	10bfffc4 	addi	r2,r2,-1
 3043718:	e0fffe17 	ldw	r3,-8(fp)
 304371c:	1885883a 	add	r2,r3,r2
 3043720:	e0bffb15 	stw	r2,-20(fp)
    alt_u32 nValue;
    int i;
    for(i=0;i<nNum;i++){
 3043724:	e03ffd15 	stw	zero,-12(fp)
 3043728:	00000e06 	br	3043764 <fatArray2Value+0x68>
        nValue <<= 8;
 304372c:	e0bffc17 	ldw	r2,-16(fp)
 3043730:	1004923a 	slli	r2,r2,8
 3043734:	e0bffc15 	stw	r2,-16(fp)
        nValue |= *pMSB--;
 3043738:	e0bffb17 	ldw	r2,-20(fp)
 304373c:	10ffffc4 	addi	r3,r2,-1
 3043740:	e0fffb15 	stw	r3,-20(fp)
 3043744:	10800003 	ldbu	r2,0(r2)
 3043748:	10803fcc 	andi	r2,r2,255
 304374c:	e0fffc17 	ldw	r3,-16(fp)
 3043750:	1884b03a 	or	r2,r3,r2
 3043754:	e0bffc15 	stw	r2,-16(fp)

unsigned int fatArray2Value(unsigned char *pValue, unsigned int nNum){
    alt_u8 *pMSB = (pValue + nNum - 1);
    alt_u32 nValue;
    int i;
    for(i=0;i<nNum;i++){
 3043758:	e0bffd17 	ldw	r2,-12(fp)
 304375c:	10800044 	addi	r2,r2,1
 3043760:	e0bffd15 	stw	r2,-12(fp)
 3043764:	e0fffd17 	ldw	r3,-12(fp)
 3043768:	e0bfff17 	ldw	r2,-4(fp)
 304376c:	18bfef36 	bltu	r3,r2,304372c <__alt_data_end+0xfffc372c>
        nValue <<= 8;
        nValue |= *pMSB--;
        
    }
    
    return nValue;
 3043770:	e0bffc17 	ldw	r2,-16(fp)
}
 3043774:	e037883a 	mov	sp,fp
 3043778:	df000017 	ldw	fp,0(sp)
 304377c:	dec00104 	addi	sp,sp,4
 3043780:	f800283a 	ret

03043784 <fatReadSecter>:

//=================================================================================
//// add in v2.0
bool fatReadSecter(VOLUME_INFO *pVol, alt_u32 nSecter){
 3043784:	defffb04 	addi	sp,sp,-20
 3043788:	dfc00415 	stw	ra,16(sp)
 304378c:	df000315 	stw	fp,12(sp)
 3043790:	df000304 	addi	fp,sp,12
 3043794:	e13ffe15 	stw	r4,-8(fp)
 3043798:	e17fff15 	stw	r5,-4(fp)
    bool bSuccess = TRUE;
 304379c:	00800044 	movi	r2,1
 30437a0:	e0bffd15 	stw	r2,-12(fp)
    if (nSecter != pVol->Secter_Index){
 30437a4:	e0bffe17 	ldw	r2,-8(fp)
 30437a8:	10c09017 	ldw	r3,576(r2)
 30437ac:	e0bfff17 	ldw	r2,-4(fp)
 30437b0:	18801226 	beq	r3,r2,30437fc <fatReadSecter+0x78>
        if (!pVol->ReadBlock512(pVol->DiskHandle, nSecter, pVol->Secter_Data)){
 30437b4:	e0bffe17 	ldw	r2,-8(fp)
 30437b8:	10800117 	ldw	r2,4(r2)
 30437bc:	e0fffe17 	ldw	r3,-8(fp)
 30437c0:	19000017 	ldw	r4,0(r3)
 30437c4:	e0fffe17 	ldw	r3,-8(fp)
 30437c8:	18c01004 	addi	r3,r3,64
 30437cc:	e17fff17 	ldw	r5,-4(fp)
 30437d0:	180d883a 	mov	r6,r3
 30437d4:	103ee83a 	callr	r2
 30437d8:	1000051e 	bne	r2,zero,30437f0 <fatReadSecter+0x6c>
            pVol->Secter_Index = -1;
 30437dc:	e0bffe17 	ldw	r2,-8(fp)
 30437e0:	00ffffc4 	movi	r3,-1
 30437e4:	10c09015 	stw	r3,576(r2)
            bSuccess = FALSE;
 30437e8:	e03ffd15 	stw	zero,-12(fp)
 30437ec:	00000306 	br	30437fc <fatReadSecter+0x78>
        }else{
            pVol->Secter_Index = nSecter;
 30437f0:	e0bffe17 	ldw	r2,-8(fp)
 30437f4:	e0ffff17 	ldw	r3,-4(fp)
 30437f8:	10c09015 	stw	r3,576(r2)
        }
    }
    return bSuccess;          
 30437fc:	e0bffd17 	ldw	r2,-12(fp)
}     
 3043800:	e037883a 	mov	sp,fp
 3043804:	dfc00117 	ldw	ra,4(sp)
 3043808:	df000017 	ldw	fp,0(sp)
 304380c:	dec00204 	addi	sp,sp,8
 3043810:	f800283a 	ret

03043814 <fatFindDirectory>:

//=================================================================================
//// add in v2.0
FAT_DIRECTORY* fatFindDirectory(VOLUME_INFO *pVol, alt_u32 nDirectoryIndex){
 3043814:	defff804 	addi	sp,sp,-32
 3043818:	dfc00715 	stw	ra,28(sp)
 304381c:	df000615 	stw	fp,24(sp)
 3043820:	df000604 	addi	fp,sp,24
 3043824:	e13ffe15 	stw	r4,-8(fp)
 3043828:	e17fff15 	stw	r5,-4(fp)
    FAT_DIRECTORY *pDir=NULL;
 304382c:	e03ffa15 	stw	zero,-24(fp)
    alt_u32 nSecterOffset, nSecter, nByteOffset;
             
    nSecterOffset = (sizeof(FAT_DIRECTORY)*nDirectoryIndex)/pVol->BPB_BytsPerSec;
 3043830:	e0bfff17 	ldw	r2,-4(fp)
 3043834:	1006917a 	slli	r3,r2,5
 3043838:	e0bffe17 	ldw	r2,-8(fp)
 304383c:	10800617 	ldw	r2,24(r2)
 3043840:	1809883a 	mov	r4,r3
 3043844:	100b883a 	mov	r5,r2
 3043848:	30484600 	call	3048460 <__udivsi3>
 304384c:	e0bffb15 	stw	r2,-20(fp)
    nSecter = pVol->RootDirectoryEntrySecter + nSecterOffset;
 3043850:	e0bffe17 	ldw	r2,-8(fp)
 3043854:	10c00e17 	ldw	r3,56(r2)
 3043858:	e0bffb17 	ldw	r2,-20(fp)
 304385c:	1885883a 	add	r2,r3,r2
 3043860:	e0bffc15 	stw	r2,-16(fp)
        // read sector
    if (fatReadSecter(pVol, nSecter)){
 3043864:	e13ffe17 	ldw	r4,-8(fp)
 3043868:	e17ffc17 	ldw	r5,-16(fp)
 304386c:	30437840 	call	3043784 <fatReadSecter>
 3043870:	10000d26 	beq	r2,zero,30438a8 <fatFindDirectory+0x94>
        nByteOffset = (sizeof(FAT_DIRECTORY)*nDirectoryIndex)%pVol->BPB_BytsPerSec; 
 3043874:	e0bfff17 	ldw	r2,-4(fp)
 3043878:	1006917a 	slli	r3,r2,5
 304387c:	e0bffe17 	ldw	r2,-8(fp)
 3043880:	10800617 	ldw	r2,24(r2)
 3043884:	1809883a 	mov	r4,r3
 3043888:	100b883a 	mov	r5,r2
 304388c:	30484680 	call	3048468 <__umodsi3>
 3043890:	e0bffd15 	stw	r2,-12(fp)
        pDir = (FAT_DIRECTORY *)(pVol->Secter_Data + nByteOffset);
 3043894:	e0bffd17 	ldw	r2,-12(fp)
 3043898:	10801004 	addi	r2,r2,64
 304389c:	e0fffe17 	ldw	r3,-8(fp)
 30438a0:	1885883a 	add	r2,r3,r2
 30438a4:	e0bffa15 	stw	r2,-24(fp)
    }        
        
    return pDir;        
 30438a8:	e0bffa17 	ldw	r2,-24(fp)
}
 30438ac:	e037883a 	mov	sp,fp
 30438b0:	dfc00117 	ldw	ra,4(sp)
 30438b4:	df000017 	ldw	fp,0(sp)
 30438b8:	dec00204 	addi	sp,sp,8
 30438bc:	f800283a 	ret

030438c0 <fatFindUnusedDirectory>:

//=================================================================================
//// add in v2.0
alt_u32 fatFindUnusedDirectory(VOLUME_INFO *pVol){
 30438c0:	defff604 	addi	sp,sp,-40
 30438c4:	dfc00915 	stw	ra,36(sp)
 30438c8:	df000815 	stw	fp,32(sp)
 30438cc:	df000804 	addi	fp,sp,32
 30438d0:	e13fff15 	stw	r4,-4(fp)
    alt_u32 Dir = -1;
 30438d4:	00bfffc4 	movi	r2,-1
 30438d8:	e0bff815 	stw	r2,-32(fp)
    FAT_DIRECTORY *pDir=NULL;
 30438dc:	e03ffb15 	stw	zero,-20(fp)
    alt_u32 nSecterOffset, nSecter, nByteOffset;
    alt_u32 nDirectoryIndex = 2; //??? start from ?
 30438e0:	00800084 	movi	r2,2
 30438e4:	e0bff915 	stw	r2,-28(fp)
    bool bDone = FALSE;
 30438e8:	e03ffa15 	stw	zero,-24(fp)
             
    while(!bDone){             
 30438ec:	00003006 	br	30439b0 <fatFindUnusedDirectory+0xf0>
        nSecterOffset = (sizeof(FAT_DIRECTORY)*nDirectoryIndex)/pVol->BPB_BytsPerSec;
 30438f0:	e0bff917 	ldw	r2,-28(fp)
 30438f4:	1006917a 	slli	r3,r2,5
 30438f8:	e0bfff17 	ldw	r2,-4(fp)
 30438fc:	10800617 	ldw	r2,24(r2)
 3043900:	1809883a 	mov	r4,r3
 3043904:	100b883a 	mov	r5,r2
 3043908:	30484600 	call	3048460 <__udivsi3>
 304390c:	e0bffc15 	stw	r2,-16(fp)
        nSecter = pVol->RootDirectoryEntrySecter + nSecterOffset;
 3043910:	e0bfff17 	ldw	r2,-4(fp)
 3043914:	10c00e17 	ldw	r3,56(r2)
 3043918:	e0bffc17 	ldw	r2,-16(fp)
 304391c:	1885883a 	add	r2,r3,r2
 3043920:	e0bffd15 	stw	r2,-12(fp)
            // read sector
        if (fatReadSecter(pVol, nSecter)){
 3043924:	e13fff17 	ldw	r4,-4(fp)
 3043928:	e17ffd17 	ldw	r5,-12(fp)
 304392c:	30437840 	call	3043784 <fatReadSecter>
 3043930:	10001e26 	beq	r2,zero,30439ac <fatFindUnusedDirectory+0xec>
            nByteOffset = (sizeof(FAT_DIRECTORY)*nDirectoryIndex)%pVol->BPB_BytsPerSec; 
 3043934:	e0bff917 	ldw	r2,-28(fp)
 3043938:	1006917a 	slli	r3,r2,5
 304393c:	e0bfff17 	ldw	r2,-4(fp)
 3043940:	10800617 	ldw	r2,24(r2)
 3043944:	1809883a 	mov	r4,r3
 3043948:	100b883a 	mov	r5,r2
 304394c:	30484680 	call	3048468 <__umodsi3>
 3043950:	e0bffe15 	stw	r2,-8(fp)
            pDir = (FAT_DIRECTORY *)(pVol->Secter_Data + nByteOffset);
 3043954:	e0bffe17 	ldw	r2,-8(fp)
 3043958:	10801004 	addi	r2,r2,64
 304395c:	e0ffff17 	ldw	r3,-4(fp)
 3043960:	1885883a 	add	r2,r3,r2
 3043964:	e0bffb15 	stw	r2,-20(fp)
            if (fatIsLastDir(pDir) || fatIsUnusedDir(pDir)){
 3043968:	e13ffb17 	ldw	r4,-20(fp)
 304396c:	3042ea40 	call	3042ea4 <fatIsLastDir>
 3043970:	1000031e 	bne	r2,zero,3043980 <fatFindUnusedDirectory+0xc0>
 3043974:	e13ffb17 	ldw	r4,-20(fp)
 3043978:	3042f900 	call	3042f90 <fatIsUnusedDir>
 304397c:	10000726 	beq	r2,zero,304399c <fatFindUnusedDirectory+0xdc>
                bDone = TRUE;
 3043980:	00800044 	movi	r2,1
 3043984:	e0bffa15 	stw	r2,-24(fp)
                if (fatIsUnusedDir(pDir))
 3043988:	e13ffb17 	ldw	r4,-20(fp)
 304398c:	3042f900 	call	3042f90 <fatIsUnusedDir>
 3043990:	10000226 	beq	r2,zero,304399c <fatFindUnusedDirectory+0xdc>
                    Dir = nDirectoryIndex;
 3043994:	e0bff917 	ldw	r2,-28(fp)
 3043998:	e0bff815 	stw	r2,-32(fp)
            }
            nDirectoryIndex++;        
 304399c:	e0bff917 	ldw	r2,-28(fp)
 30439a0:	10800044 	addi	r2,r2,1
 30439a4:	e0bff915 	stw	r2,-28(fp)
 30439a8:	00000106 	br	30439b0 <fatFindUnusedDirectory+0xf0>
        }else{
                bDone = FALSE;
 30439ac:	e03ffa15 	stw	zero,-24(fp)
    FAT_DIRECTORY *pDir=NULL;
    alt_u32 nSecterOffset, nSecter, nByteOffset;
    alt_u32 nDirectoryIndex = 2; //??? start from ?
    bool bDone = FALSE;
             
    while(!bDone){             
 30439b0:	e0bffa17 	ldw	r2,-24(fp)
 30439b4:	103fce26 	beq	r2,zero,30438f0 <__alt_data_end+0xfffc38f0>
        }else{
                bDone = FALSE;
        }
    }             
    
    return Dir;      
 30439b8:	e0bff817 	ldw	r2,-32(fp)
}
 30439bc:	e037883a 	mov	sp,fp
 30439c0:	dfc00117 	ldw	ra,4(sp)
 30439c4:	df000017 	ldw	fp,0(sp)
 30439c8:	dec00204 	addi	sp,sp,8
 30439cc:	f800283a 	ret

030439d0 <fatMount>:

//=================================================================================
bool fatMount(VOLUME_INFO *pVol){
 30439d0:	deff7604 	addi	sp,sp,-552
 30439d4:	dfc08915 	stw	ra,548(sp)
 30439d8:	df008815 	stw	fp,544(sp)
 30439dc:	dc008715 	stw	r16,540(sp)
 30439e0:	df008804 	addi	fp,sp,544
 30439e4:	e13ffe15 	stw	r4,-8(fp)
    bool bSuccess = TRUE;
 30439e8:	00800044 	movi	r2,1
 30439ec:	e0bf7815 	stw	r2,-544(fp)
    // 1DEh( 16 bytes): 3nd Partition Entry
    // 1EEh( 16 bytes): 4nd Partition Entry
    // 1FEh(  2 bytes): Executable Maker (55h AAh)
    
    // read first block (secotor 0), BPB(BIOS Parameter Block) or called as boot sector or reserved sector
    if (!pVol->ReadBlock512(pVol->DiskHandle, 0, szBlock)){
 30439f0:	e0bffe17 	ldw	r2,-8(fp)
 30439f4:	10800117 	ldw	r2,4(r2)
 30439f8:	e0fffe17 	ldw	r3,-8(fp)
 30439fc:	19000017 	ldw	r4,0(r3)
 3043a00:	e0ff7e04 	addi	r3,fp,-520
 3043a04:	000b883a 	mov	r5,zero
 3043a08:	180d883a 	mov	r6,r3
 3043a0c:	103ee83a 	callr	r2
 3043a10:	1000081e 	bne	r2,zero,3043a34 <fatMount+0x64>
        FAT_DEBUG(("Read section 0 error.\n"));
 3043a14:	0100c1f4 	movhi	r4,775
 3043a18:	21222004 	addi	r4,r4,-30592
 3043a1c:	3045e5c0 	call	3045e5c <myprintf>
 3043a20:	0100c1f4 	movhi	r4,775
 3043a24:	21229b04 	addi	r4,r4,-30100
 3043a28:	3045e5c0 	call	3045e5c <myprintf>
        return FALSE;
 3043a2c:	0005883a 	mov	r2,zero
 3043a30:	0000d606 	br	3043d8c <fatMount+0x3bc>
        return FALSE;
    }
    */
        
    // check file system 
    FirstPartitionEntry = 0x1BE;
 3043a34:	00806f84 	movi	r2,446
 3043a38:	e0bf7915 	stw	r2,-540(fp)
    //PartitionType = szBlock[FirstPartitionEntry + 4];
    PartitionType = szBlock[0x01C2];
 3043a3c:	e0bfee83 	ldbu	r2,-70(fp)
 3043a40:	10803fcc 	andi	r2,r2,255
 3043a44:	e0bf7a15 	stw	r2,-536(fp)
    if (PartitionType == PARTITION_FAT16){
 3043a48:	e0bf7a17 	ldw	r2,-536(fp)
 3043a4c:	10800198 	cmpnei	r2,r2,6
 3043a50:	1000071e 	bne	r2,zero,3043a70 <fatMount+0xa0>
        FAT_DEBUG(("FAT16\n"));
 3043a54:	0100c1f4 	movhi	r4,775
 3043a58:	21222004 	addi	r4,r4,-30592
